---
triple:          'arm64-apple-darwin'
binary-path:     p01_busqueda
relocations:
  - { offsetInCU: 0x3F, offset: 0x3F, size: 0x8, addend: 0x0, symName: _final, symObjAddr: 0x92C68, symBinAddr: 0x100028000, symSize: 0x0 }
  - { offsetInCU: 0xA851, offset: 0xA851, size: 0x8, addend: 0x0, symName: __ZNSt3__17advanceB8ue170006INS_21__tree_const_iteratorINS_12__value_typeIifEEPNS_11__tree_nodeIS3_PvEElEEllvEEvRT_T0_, symObjAddr: 0x393C, symBinAddr: 0x100005EA4, symSize: 0x38 }
  - { offsetInCU: 0xBA98, offset: 0xBA98, size: 0x8, addend: 0x0, symName: __ZNSt3__17advanceB8ue170006IP4NodollvEEvRT_T0_, symObjAddr: 0x6574, symBinAddr: 0x100008ADC, symSize: 0x38 }
  - { offsetInCU: 0xEF4C, offset: 0xEF4C, size: 0x8, addend: 0x0, symName: __ZNSt3__124__put_character_sequenceB8ue170006IcNS_11char_traitsIcEEEERNS_13basic_ostreamIT_T0_EES7_PKS4_m, symObjAddr: 0xF830, symBinAddr: 0x100011D98, symSize: 0x1F4 }
  - { offsetInCU: 0x10FB4, offset: 0x10FB4, size: 0x8, addend: 0x0, symName: __ZNSt3__1lsB8ue170006INS_11char_traitsIcEEEERNS_13basic_ostreamIcT_EES6_PKc, symObjAddr: 0x15BC, symBinAddr: 0x100003B24, symSize: 0x48 }
  - { offsetInCU: 0x10FFA, offset: 0x10FFA, size: 0x8, addend: 0x0, symName: __ZNSt3__14endlB8ue170006IcNS_11char_traitsIcEEEERNS_13basic_ostreamIT_T0_EES7_, symObjAddr: 0x1630, symBinAddr: 0x100003B98, symSize: 0x58 }
  - { offsetInCU: 0x1103A, offset: 0x1103A, size: 0x8, addend: 0x0, symName: __ZNSt3__1neB8ue170006ERKNS_20__map_const_iteratorINS_21__tree_const_iteratorINS_12__value_typeIifEEPNS_11__tree_nodeIS3_PvEElEEEESB_, symObjAddr: 0x1734, symBinAddr: 0x100003C9C, symSize: 0x30 }
  - { offsetInCU: 0x11077, offset: 0x11077, size: 0x8, addend: 0x0, symName: __ZNSt3__1eqB8ue170006ERKNS_21__tree_const_iteratorIiPNS_11__tree_nodeIiPvEElEES7_, symObjAddr: 0x178C, symBinAddr: 0x100003CF4, symSize: 0x30 }
  - { offsetInCU: 0x11280, offset: 0x11280, size: 0x8, addend: 0x0, symName: __ZNSt3__1eqB8ue170006ERKNS_21__tree_const_iteratorINS_12__value_typeIifEEPNS_11__tree_nodeIS2_PvEElEES9_, symObjAddr: 0x3298, symBinAddr: 0x100005800, symSize: 0x30 }
  - { offsetInCU: 0x112BD, offset: 0x112BD, size: 0x8, addend: 0x0, symName: __ZNSt3__14nextB8ue170006INS_21__tree_const_iteratorINS_12__value_typeIifEEPNS_11__tree_nodeIS3_PvEElEEEENS_9enable_ifIXsr29__has_input_iterator_categoryIT_EE5valueESA_E4typeESA_NS_15iterator_traitsISA_E15difference_typeE, symObjAddr: 0x3608, symBinAddr: 0x100005B70, symSize: 0x3C }
  - { offsetInCU: 0x11300, offset: 0x11300, size: 0x8, addend: 0x0, symName: __ZNSt3__116__tree_prev_iterB8ue170006IPNS_16__tree_node_baseIPvEEPNS_15__tree_end_nodeIS4_EEEET_T0_, symObjAddr: 0x3750, symBinAddr: 0x100005CB8, symSize: 0xB8 }
  - { offsetInCU: 0x1134C, offset: 0x1134C, size: 0x8, addend: 0x0, symName: __ZNSt3__110__tree_maxB8ue170006IPNS_16__tree_node_baseIPvEEEET_S5_, symObjAddr: 0x3808, symBinAddr: 0x100005D70, symSize: 0x40 }
  - { offsetInCU: 0x11381, offset: 0x11381, size: 0x8, addend: 0x0, symName: __ZNSt3__120__tree_is_left_childB8ue170006IPNS_16__tree_node_baseIPvEEEEbT_, symObjAddr: 0x3848, symBinAddr: 0x100005DB0, symSize: 0x2C }
  - { offsetInCU: 0x113B6, offset: 0x113B6, size: 0x8, addend: 0x0, symName: __ZNSt3__121__convert_to_integralB8ue170006El, symObjAddr: 0x3974, symBinAddr: 0x100005EDC, symSize: 0x14 }
  - { offsetInCU: 0x113E2, offset: 0x113E2, size: 0x8, addend: 0x0, symName: __ZNSt3__19__advanceB8ue170006INS_21__tree_const_iteratorINS_12__value_typeIifEEPNS_11__tree_nodeIS3_PvEElEEEEvRT_NS_15iterator_traitsIS9_E15difference_typeENS_26bidirectional_iterator_tagE, symObjAddr: 0x3988, symBinAddr: 0x100005EF0, symSize: 0xA4 }
  - { offsetInCU: 0x1142B, offset: 0x1142B, size: 0x8, addend: 0x0, symName: __ZNSt3__116__tree_next_iterB8ue170006IPNS_15__tree_end_nodeIPNS_16__tree_node_baseIPvEEEES5_EET_T0_, symObjAddr: 0x3A64, symBinAddr: 0x100005FCC, symSize: 0x80 }
  - { offsetInCU: 0x11469, offset: 0x11469, size: 0x8, addend: 0x0, symName: __ZNSt3__110__tree_minB8ue170006IPNS_16__tree_node_baseIPvEEEET_S5_, symObjAddr: 0x3AE4, symBinAddr: 0x10000604C, symSize: 0x40 }
  - { offsetInCU: 0x114BC, offset: 0x114BC, size: 0x8, addend: 0x0, symName: __ZNSt3__130__libcpp_is_constant_evaluatedB8ue170006Ev, symObjAddr: 0x3DBC, symBinAddr: 0x100006324, symSize: 0xC }
  - { offsetInCU: 0x114D9, offset: 0x114D9, size: 0x8, addend: 0x0, symName: __ZNSt3__117__libcpp_allocateB8ue170006Emm, symObjAddr: 0x3DC8, symBinAddr: 0x100006330, symSize: 0x28 }
  - { offsetInCU: 0x11516, offset: 0x11516, size: 0x8, addend: 0x0, symName: __ZNSt3__121__libcpp_operator_newB8ue170006IJmEEEPvDpT_, symObjAddr: 0x3E08, symBinAddr: 0x100006370, symSize: 0x24 }
  - { offsetInCU: 0x1154F, offset: 0x1154F, size: 0x8, addend: 0x0, symName: __ZNSt3__127__tree_balance_after_insertB8ue170006IPNS_16__tree_node_baseIPvEEEEvT_S5_, symObjAddr: 0x403C, symBinAddr: 0x1000065A4, symSize: 0x27C }
  - { offsetInCU: 0x115CB, offset: 0x115CB, size: 0x8, addend: 0x0, symName: __ZNSt3__118__tree_left_rotateB8ue170006IPNS_16__tree_node_baseIPvEEEEvT_, symObjAddr: 0x42E0, symBinAddr: 0x100006848, symSize: 0xEC }
  - { offsetInCU: 0x1160D, offset: 0x1160D, size: 0x8, addend: 0x0, symName: __ZNSt3__119__tree_right_rotateB8ue170006IPNS_16__tree_node_baseIPvEEEEvT_, symObjAddr: 0x43CC, symBinAddr: 0x100006934, symSize: 0xCC }
  - { offsetInCU: 0x1164F, offset: 0x1164F, size: 0x8, addend: 0x0, symName: __ZNSt3__119__libcpp_deallocateB8ue170006EPvmm, symObjAddr: 0x4738, symBinAddr: 0x100006CA0, symSize: 0x30 }
  - { offsetInCU: 0x11697, offset: 0x11697, size: 0x8, addend: 0x0, symName: __ZNSt3__127__do_deallocate_handle_sizeB8ue170006IJEEEvPvmDpT_, symObjAddr: 0x4768, symBinAddr: 0x100006CD0, symSize: 0x28 }
  - { offsetInCU: 0x116D5, offset: 0x116D5, size: 0x8, addend: 0x0, symName: __ZNSt3__124__libcpp_operator_deleteB8ue170006IJPvEEEvDpT_, symObjAddr: 0x4790, symBinAddr: 0x100006CF8, symSize: 0x24 }
  - { offsetInCU: 0x1170A, offset: 0x1170A, size: 0x8, addend: 0x0, symName: __ZNSt3__122__make_exception_guardB8ue170006INS_6vectorI4NodoNS_9allocatorIS2_EEE16__destroy_vectorEEENS_28__exception_guard_exceptionsIT_EES8_, symObjAddr: 0x4C00, symBinAddr: 0x100007168, symSize: 0x40 }
  - { offsetInCU: 0x1173F, offset: 0x1173F, size: 0x8, addend: 0x0, symName: __ZNSt3__119__allocate_at_leastB8ue170006INS_9allocatorI4NodoEEEENS_19__allocation_resultINS_16allocator_traitsIT_E7pointerEEERS6_m, symObjAddr: 0x4F0C, symBinAddr: 0x100007474, symSize: 0x40 }
  - { offsetInCU: 0x11782, offset: 0x11782, size: 0x8, addend: 0x0, symName: __ZNSt3__13minB8ue170006ImEERKT_S3_S3_, symObjAddr: 0x5064, symBinAddr: 0x1000075CC, symSize: 0x2C }
  - { offsetInCU: 0x119C6, offset: 0x119C6, size: 0x8, addend: 0x0, symName: __ZNSt3__13minB8ue170006ImNS_6__lessIvvEEEERKT_S5_S5_T0_, symObjAddr: 0x50C8, symBinAddr: 0x100007630, symSize: 0x54 }
  - { offsetInCU: 0x11A65, offset: 0x11A65, size: 0x8, addend: 0x0, symName: __ZNSt3__120__throw_length_errorB8ue170006EPKc, symObjAddr: 0x5170, symBinAddr: 0x1000076D8, symSize: 0x64 }
  - { offsetInCU: 0x11A8F, offset: 0x11A8F, size: 0x8, addend: 0x0, symName: __ZNSt3__112__to_addressB8ue170006I4NodoEEPT_S3_, symObjAddr: 0x53D8, symBinAddr: 0x100007940, symSize: 0x14 }
  - { offsetInCU: 0x11AC4, offset: 0x11AC4, size: 0x8, addend: 0x0, symName: __ZNSt3__130__uninitialized_allocator_copyB8ue170006INS_9allocatorI4NodoEEPS2_S4_S4_EET2_RT_T0_T1_S5_, symObjAddr: 0x5488, symBinAddr: 0x1000079F0, symSize: 0x80 }
  - { offsetInCU: 0x11B61, offset: 0x11B61, size: 0x8, addend: 0x0, symName: __ZNSt3__114__unwrap_rangeB8ue170006IP4NodoS2_EENS_4pairIT0_S4_EET_S6_, symObjAddr: 0x5580, symBinAddr: 0x100007AE8, symSize: 0x60 }
  - { offsetInCU: 0x11BAD, offset: 0x11BAD, size: 0x8, addend: 0x0, symName: __ZNSt3__135__uninitialized_allocator_copy_implB8ue170006INS_9allocatorI4NodoEEPS2_S4_S4_EET2_RT_T0_T1_S5_, symObjAddr: 0x55E0, symBinAddr: 0x100007B48, symSize: 0xFC }
  - { offsetInCU: 0x11C4B, offset: 0x11C4B, size: 0x8, addend: 0x0, symName: __ZNSt3__113__unwrap_iterB8ue170006IP4NodoNS_18__unwrap_iter_implIS2_Lb1EEELi0EEEDTclsrT0_8__unwrapclsr3stdE7declvalIT_EEEES6_, symObjAddr: 0x56DC, symBinAddr: 0x100007C44, symSize: 0x24 }
  - { offsetInCU: 0x11C8F, offset: 0x11C8F, size: 0x8, addend: 0x0, symName: __ZNSt3__113__rewrap_iterB8ue170006IP4NodoS2_NS_18__unwrap_iter_implIS2_Lb1EEEEET_S5_T0_, symObjAddr: 0x5700, symBinAddr: 0x100007C68, symSize: 0x50 }
  - { offsetInCU: 0x11CE4, offset: 0x11CE4, size: 0x8, addend: 0x0, symName: __ZNSt3__19make_pairB8ue170006IP4NodoS2_EENS_4pairINS_18__unwrap_ref_decayIT_E4typeENS4_IT0_E4typeEEEOS5_OS8_, symObjAddr: 0x5750, symBinAddr: 0x100007CB8, symSize: 0x38 }
  - { offsetInCU: 0x11DE0, offset: 0x11DE0, size: 0x8, addend: 0x0, symName: __ZNSt3__122__make_exception_guardB8ue170006INS_29_AllocatorDestroyRangeReverseINS_9allocatorI4NodoEEPS3_EEEENS_28__exception_guard_exceptionsIT_EES8_, symObjAddr: 0x57F8, symBinAddr: 0x100007D60, symSize: 0x4C }
  - { offsetInCU: 0x11E16, offset: 0x11E16, size: 0x8, addend: 0x0, symName: __ZNSt3__119__allocator_destroyB8ue170006INS_9allocatorI4NodoEENS_16reverse_iteratorIPS2_EES6_EEvRT_T0_T1_, symObjAddr: 0x5A80, symBinAddr: 0x100007FE8, symSize: 0x70 }
  - { offsetInCU: 0x11E79, offset: 0x11E79, size: 0x8, addend: 0x0, symName: __ZNSt3__1neB8ue170006IP4NodoS2_EEbRKNS_16reverse_iteratorIT_EERKNS3_IT0_EE, symObjAddr: 0x5B24, symBinAddr: 0x10000808C, symSize: 0x48 }
  - { offsetInCU: 0x11EC5, offset: 0x11EC5, size: 0x8, addend: 0x0, symName: __ZNSt3__112__to_addressB8ue170006INS_16reverse_iteratorIP4NodoEEvEEu7__decayIDTclsr19__to_address_helperIT_EE6__callclsr3stdE7declvalIRKS5_EEEEES7_, symObjAddr: 0x5B98, symBinAddr: 0x100008100, symSize: 0x24 }
  - { offsetInCU: 0x11F77, offset: 0x11F77, size: 0x8, addend: 0x0, symName: __ZNSt3__18distanceB8ue170006IP4NodoEENS_15iterator_traitsIT_E15difference_typeES4_S4_, symObjAddr: 0x62FC, symBinAddr: 0x100008864, symSize: 0x2C }
  - { offsetInCU: 0x11FBA, offset: 0x11FBA, size: 0x8, addend: 0x0, symName: __ZNSt3__14nextB8ue170006IP4NodoEENS_9enable_ifIXsr29__has_input_iterator_categoryIT_EE5valueES4_E4typeES4_NS_15iterator_traitsIS4_E15difference_typeE, symObjAddr: 0x6328, symBinAddr: 0x100008890, symSize: 0x34 }
  - { offsetInCU: 0x11FFD, offset: 0x11FFD, size: 0x8, addend: 0x0, symName: __ZNSt3__14copyB8ue170006IP4NodoS2_EET0_T_S4_S3_, symObjAddr: 0x635C, symBinAddr: 0x1000088C4, symSize: 0x40 }
  - { offsetInCU: 0x12057, offset: 0x12057, size: 0x8, addend: 0x0, symName: __ZNSt3__16__copyB8ue170006INS_17_ClassicAlgPolicyEP4NodoS3_S3_EENS_4pairIT0_T2_EES5_T1_S6_, symObjAddr: 0x639C, symBinAddr: 0x100008904, symSize: 0x44 }
  - { offsetInCU: 0x120C3, offset: 0x120C3, size: 0x8, addend: 0x0, symName: __ZNSt3__19__advanceB8ue170006IP4NodoEEvRT_NS_15iterator_traitsIS3_E15difference_typeENS_26random_access_iterator_tagE, symObjAddr: 0x65AC, symBinAddr: 0x100008B14, symSize: 0x30 }
  - { offsetInCU: 0x1210C, offset: 0x1210C, size: 0x8, addend: 0x0, symName: __ZNSt3__123__dispatch_copy_or_moveB8ue170006INS_17_ClassicAlgPolicyENS_11__copy_loopIS1_EENS_14__copy_trivialEP4NodoS6_S6_EENS_4pairIT2_T4_EES8_T3_S9_, symObjAddr: 0x65DC, symBinAddr: 0x100008B44, symSize: 0x44 }
  - { offsetInCU: 0x1218A, offset: 0x1218A, size: 0x8, addend: 0x0, symName: __ZNSt3__121__unwrap_and_dispatchB8ue170006INS_10__overloadINS_11__copy_loopINS_17_ClassicAlgPolicyEEENS_14__copy_trivialEEEP4NodoS8_S8_Li0EEENS_4pairIT0_T2_EESA_T1_SB_, symObjAddr: 0x6620, symBinAddr: 0x100008B88, symSize: 0xB4 }
  - { offsetInCU: 0x12273, offset: 0x12273, size: 0x8, addend: 0x0, symName: __ZNSt3__114__rewrap_rangeB8ue170006IP4NodoS2_EET_S3_T0_, symObjAddr: 0x675C, symBinAddr: 0x100008CC4, symSize: 0x2C }
  - { offsetInCU: 0x122BF, offset: 0x122BF, size: 0x8, addend: 0x0, symName: __ZNSt3__13maxB8ue170006ImEERKT_S3_S3_, symObjAddr: 0x689C, symBinAddr: 0x100008E04, symSize: 0x2C }
  - { offsetInCU: 0x12302, offset: 0x12302, size: 0x8, addend: 0x0, symName: __ZNSt3__13maxB8ue170006ImNS_6__lessIvvEEEERKT_S5_S5_T0_, symObjAddr: 0x68C8, symBinAddr: 0x100008E30, symSize: 0x54 }
  - { offsetInCU: 0x1235C, offset: 0x1235C, size: 0x8, addend: 0x0, symName: __ZNSt3__110__distanceB8ue170006IP4NodoEENS_15iterator_traitsIT_E15difference_typeES4_S4_NS_26random_access_iterator_tagE, symObjAddr: 0x691C, symBinAddr: 0x100008E84, symSize: 0x28 }
  - { offsetInCU: 0x123A9, offset: 0x123A9, size: 0x8, addend: 0x0, symName: __ZNSt3__1neB8ue170006ERKNS_16__deque_iteratorI4NodoPS1_RS1_PS2_lLl85EEES7_, symObjAddr: 0x6EF0, symBinAddr: 0x100009458, symSize: 0x34 }
  - { offsetInCU: 0x123E6, offset: 0x123E6, size: 0x8, addend: 0x0, symName: __ZNSt3__1eqB8ue170006ERKNS_16__deque_iteratorI4NodoPS1_RS1_PS2_lLl85EEES7_, symObjAddr: 0x7218, symBinAddr: 0x100009780, symSize: 0x30 }
  - { offsetInCU: 0x12423, offset: 0x12423, size: 0x8, addend: 0x0, symName: __ZNSt3__112__to_addressB8ue170006IP4NodoEEPT_S4_, symObjAddr: 0x7C04, symBinAddr: 0x10000A16C, symSize: 0x14 }
  - { offsetInCU: 0x12458, offset: 0x12458, size: 0x8, addend: 0x0, symName: __ZNSt3__1neB8ue170006ERKNS_16__deque_iteratorIiPiRiPS1_lLl1024EEES6_, symObjAddr: 0x8398, symBinAddr: 0x10000A900, symSize: 0x34 }
  - { offsetInCU: 0x12495, offset: 0x12495, size: 0x8, addend: 0x0, symName: __ZNSt3__1eqB8ue170006ERKNS_16__deque_iteratorIiPiRiPS1_lLl1024EEES6_, symObjAddr: 0x86D0, symBinAddr: 0x10000AC38, symSize: 0x30 }
  - { offsetInCU: 0x124D2, offset: 0x124D2, size: 0x8, addend: 0x0, symName: __ZNSt3__112__to_addressB8ue170006IiEEPT_S2_, symObjAddr: 0x8D4C, symBinAddr: 0x10000B2B4, symSize: 0x14 }
  - { offsetInCU: 0x12507, offset: 0x12507, size: 0x8, addend: 0x0, symName: __ZNSt3__112__to_addressB8ue170006IPiEEPT_S3_, symObjAddr: 0x9150, symBinAddr: 0x10000B6B8, symSize: 0x14 }
  - { offsetInCU: 0x1253C, offset: 0x1253C, size: 0x8, addend: 0x0, symName: __ZNSt3__119__allocate_at_leastB8ue170006INS_9allocatorIiEEEENS_19__allocation_resultINS_16allocator_traitsIT_E7pointerEEERS5_m, symObjAddr: 0xAEB0, symBinAddr: 0x10000D418, symSize: 0x40 }
  - { offsetInCU: 0x1257F, offset: 0x1257F, size: 0x8, addend: 0x0, symName: __ZNSt3__142__uninitialized_allocator_move_if_noexceptB8ue170006INS_9allocatorIiEENS_16reverse_iteratorIPiEES5_ivEET1_RT_T0_S9_S6_, symObjAddr: 0xB15C, symBinAddr: 0x10000D6C4, symSize: 0xE8 }
  - { offsetInCU: 0x125FC, offset: 0x125FC, size: 0x8, addend: 0x0, symName: __ZNSt3__14swapB8ue170006IPiEEvRT_S3_, symObjAddr: 0xB290, symBinAddr: 0x10000D7F8, symSize: 0x3C }
  - { offsetInCU: 0x1264D, offset: 0x1264D, size: 0x8, addend: 0x0, symName: __ZNSt3__1neB8ue170006IPiS1_EEbRKNS_16reverse_iteratorIT_EERKNS2_IT0_EE, symObjAddr: 0xB378, symBinAddr: 0x10000D8E0, symSize: 0x48 }
  - { offsetInCU: 0x126BE, offset: 0x126BE, size: 0x8, addend: 0x0, symName: __ZNSt3__114__construct_atB8ue170006IiJiEPiEEPT_S3_DpOT0_, symObjAddr: 0xB3C0, symBinAddr: 0x10000D928, symSize: 0x2C }
  - { offsetInCU: 0x1272E, offset: 0x1272E, size: 0x8, addend: 0x0, symName: __ZNSt3__112__to_addressB8ue170006INS_16reverse_iteratorIPiEEvEEu7__decayIDTclsr19__to_address_helperIT_EE6__callclsr3stdE7declvalIRKS4_EEEEES6_, symObjAddr: 0xB3EC, symBinAddr: 0x10000D954, symSize: 0x24 }
  - { offsetInCU: 0x12764, offset: 0x12764, size: 0x8, addend: 0x0, symName: __ZNSt3__14moveB8ue170006INS_16reverse_iteratorIPiEES3_EET0_T_S5_S4_, symObjAddr: 0xB458, symBinAddr: 0x10000D9C0, symSize: 0x78 }
  - { offsetInCU: 0x127E7, offset: 0x127E7, size: 0x8, addend: 0x0, symName: __ZNSt3__16__moveB8ue170006INS_17_ClassicAlgPolicyENS_16reverse_iteratorIPiEES4_S4_EENS_4pairIT0_T2_EES6_T1_S7_, symObjAddr: 0xB540, symBinAddr: 0x10000DAA8, symSize: 0x64 }
  - { offsetInCU: 0x12853, offset: 0x12853, size: 0x8, addend: 0x0, symName: __ZNSt3__123__dispatch_copy_or_moveB8ue170006INS_17_ClassicAlgPolicyENS_11__move_loopIS1_EENS_14__move_trivialENS_16reverse_iteratorIPiEES7_S7_EENS_4pairIT2_T4_EES9_T3_SA_, symObjAddr: 0xB5A4, symBinAddr: 0x10000DB0C, symSize: 0x64 }
  - { offsetInCU: 0x128D1, offset: 0x128D1, size: 0x8, addend: 0x0, symName: __ZNSt3__121__unwrap_and_dispatchB8ue170006INS_10__overloadINS_11__move_loopINS_17_ClassicAlgPolicyEEENS_14__move_trivialEEENS_16reverse_iteratorIPiEES9_S9_Li0EEENS_4pairIT0_T2_EESB_T1_SC_, symObjAddr: 0xB608, symBinAddr: 0x10000DB70, symSize: 0x12C }
  - { offsetInCU: 0x12961, offset: 0x12961, size: 0x8, addend: 0x0, symName: __ZNSt3__114__unwrap_rangeB8ue170006INS_16reverse_iteratorIPiEES3_EENS_4pairIT0_S5_EET_S7_, symObjAddr: 0xB734, symBinAddr: 0x10000DC9C, symSize: 0x84 }
  - { offsetInCU: 0x12AAC, offset: 0x12AAC, size: 0x8, addend: 0x0, symName: __ZNSt3__113__unwrap_iterB8ue170006INS_16reverse_iteratorIPiEENS_18__unwrap_iter_implIS3_Lb0EEELi0EEEDTclsrT0_8__unwrapclsr3stdE7declvalIT_EEEES7_, symObjAddr: 0xB858, symBinAddr: 0x10000DDC0, symSize: 0x44 }
  - { offsetInCU: 0x12AF0, offset: 0x12AF0, size: 0x8, addend: 0x0, symName: __ZNSt3__19make_pairB8ue170006INS_16reverse_iteratorIPiEES3_EENS_4pairINS_18__unwrap_ref_decayIT_E4typeENS5_IT0_E4typeEEEOS6_OS9_, symObjAddr: 0xB89C, symBinAddr: 0x10000DE04, symSize: 0x38 }
  - { offsetInCU: 0x12B3F, offset: 0x12B3F, size: 0x8, addend: 0x0, symName: __ZNSt3__114__rewrap_rangeB8ue170006INS_16reverse_iteratorIPiEES3_EET_S4_T0_, symObjAddr: 0xB8D4, symBinAddr: 0x10000DE3C, symSize: 0x5C }
  - { offsetInCU: 0x12B8B, offset: 0x12B8B, size: 0x8, addend: 0x0, symName: __ZNSt3__113__rewrap_iterB8ue170006INS_16reverse_iteratorIPiEES3_NS_18__unwrap_iter_implIS3_Lb0EEEEET_S6_T0_, symObjAddr: 0xB930, symBinAddr: 0x10000DE98, symSize: 0x88 }
  - { offsetInCU: 0x13067, offset: 0x13067, size: 0x8, addend: 0x0, symName: __ZNSt3__14swapB8ue170006IPP4NodoEEvRT_S5_, symObjAddr: 0xD390, symBinAddr: 0x10000F8F8, symSize: 0x3C }
  - { offsetInCU: 0x130B8, offset: 0x130B8, size: 0x8, addend: 0x0, symName: __ZNSt3__14moveB8ue170006IPP4NodoS3_EET0_T_S5_S4_, symObjAddr: 0xD474, symBinAddr: 0x10000F9DC, symSize: 0x40 }
  - { offsetInCU: 0x1312E, offset: 0x1312E, size: 0x8, addend: 0x0, symName: __ZNSt3__16__moveB8ue170006INS_17_ClassicAlgPolicyEPP4NodoS4_S4_EENS_4pairIT0_T2_EES6_T1_S7_, symObjAddr: 0xD57C, symBinAddr: 0x10000FAE4, symSize: 0x44 }
  - { offsetInCU: 0x1319A, offset: 0x1319A, size: 0x8, addend: 0x0, symName: __ZNSt3__123__dispatch_copy_or_moveB8ue170006INS_17_ClassicAlgPolicyENS_11__move_loopIS1_EENS_14__move_trivialEPP4NodoS7_S7_EENS_4pairIT2_T4_EES9_T3_SA_, symObjAddr: 0xD5C0, symBinAddr: 0x10000FB28, symSize: 0x44 }
  - { offsetInCU: 0x13218, offset: 0x13218, size: 0x8, addend: 0x0, symName: __ZNSt3__121__unwrap_and_dispatchB8ue170006INS_10__overloadINS_11__move_loopINS_17_ClassicAlgPolicyEEENS_14__move_trivialEEEPP4NodoS9_S9_Li0EEENS_4pairIT0_T2_EESB_T1_SC_, symObjAddr: 0xD604, symBinAddr: 0x10000FB6C, symSize: 0xB4 }
  - { offsetInCU: 0x132A6, offset: 0x132A6, size: 0x8, addend: 0x0, symName: __ZNSt3__114__unwrap_rangeB8ue170006IPP4NodoS3_EENS_4pairIT0_S5_EET_S7_, symObjAddr: 0xD6B8, symBinAddr: 0x10000FC20, symSize: 0x60 }
  - { offsetInCU: 0x13421, offset: 0x13421, size: 0x8, addend: 0x0, symName: __ZNSt3__113__unwrap_iterB8ue170006IPP4NodoNS_18__unwrap_iter_implIS3_Lb1EEELi0EEEDTclsrT0_8__unwrapclsr3stdE7declvalIT_EEEES7_, symObjAddr: 0xD760, symBinAddr: 0x10000FCC8, symSize: 0x24 }
  - { offsetInCU: 0x13465, offset: 0x13465, size: 0x8, addend: 0x0, symName: __ZNSt3__19make_pairB8ue170006IPP4NodoS3_EENS_4pairINS_18__unwrap_ref_decayIT_E4typeENS5_IT0_E4typeEEEOS6_OS9_, symObjAddr: 0xD784, symBinAddr: 0x10000FCEC, symSize: 0x38 }
  - { offsetInCU: 0x134B4, offset: 0x134B4, size: 0x8, addend: 0x0, symName: __ZNSt3__114__rewrap_rangeB8ue170006IPP4NodoS3_EET_S4_T0_, symObjAddr: 0xD7BC, symBinAddr: 0x10000FD24, symSize: 0x2C }
  - { offsetInCU: 0x13500, offset: 0x13500, size: 0x8, addend: 0x0, symName: __ZNSt3__113__rewrap_iterB8ue170006IPP4NodoS3_NS_18__unwrap_iter_implIS3_Lb1EEEEET_S6_T0_, symObjAddr: 0xD7E8, symBinAddr: 0x10000FD50, symSize: 0x50 }
  - { offsetInCU: 0x13555, offset: 0x13555, size: 0x8, addend: 0x0, symName: __ZNSt3__119__copy_trivial_implB8ue170006IP4NodoS2_EENS_4pairIPT_PT0_EES5_S5_S7_, symObjAddr: 0xD838, symBinAddr: 0x10000FDA0, symSize: 0x80 }
  - { offsetInCU: 0x135BD, offset: 0x135BD, size: 0x8, addend: 0x0, symName: __ZNSt3__119__constexpr_memmoveB8ue170006IP4NodoS2_Li0EEEPT_S4_PT0_NS_15__element_countE, symObjAddr: 0xD8B8, symBinAddr: 0x10000FE20, symSize: 0xA0 }
  - { offsetInCU: 0x1362B, offset: 0x1362B, size: 0x8, addend: 0x0, symName: __ZNSt3__19make_pairB8ue170006IRPP4NodoS3_EENS_4pairINS_18__unwrap_ref_decayIT_E4typeENS6_IT0_E4typeEEEOS7_OSA_, symObjAddr: 0xD958, symBinAddr: 0x10000FEC0, symSize: 0x38 }
  - { offsetInCU: 0x136CD, offset: 0x136CD, size: 0x8, addend: 0x0, symName: __ZNSt3__18distanceB8ue170006INS_13move_iteratorIPP4NodoEEEENS_15iterator_traitsIT_E15difference_typeES7_S7_, symObjAddr: 0xDB58, symBinAddr: 0x1000100C0, symSize: 0x3C }
  - { offsetInCU: 0x13710, offset: 0x13710, size: 0x8, addend: 0x0, symName: __ZNSt3__110__distanceB8ue170006INS_13move_iteratorIPP4NodoEEEENS_15iterator_traitsIT_E15difference_typeES7_S7_NS_26random_access_iterator_tagE, symObjAddr: 0xDD5C, symBinAddr: 0x1000102C4, symSize: 0x30 }
  - { offsetInCU: 0x1375D, offset: 0x1375D, size: 0x8, addend: 0x0, symName: __ZNSt3__1miB8ue170006IPP4NodoS3_EENS_13move_iteratorIT_E15difference_typeERKS6_RKNS4_IT0_EE, symObjAddr: 0xDD8C, symBinAddr: 0x1000102F4, symSize: 0x48 }
  - { offsetInCU: 0x137AC, offset: 0x137AC, size: 0x8, addend: 0x0, symName: __ZNSt3__113move_backwardB8ue170006IPP4NodoS3_EET0_T_S5_S4_, symObjAddr: 0xDE34, symBinAddr: 0x10001039C, symSize: 0x40 }
  - { offsetInCU: 0x13806, offset: 0x13806, size: 0x8, addend: 0x0, symName: __ZNSt3__115__move_backwardB8ue170006INS_17_ClassicAlgPolicyEPP4NodoS4_S4_EENS_4pairIT0_T2_EES6_T1_S7_, symObjAddr: 0xDE74, symBinAddr: 0x1000103DC, symSize: 0x44 }
  - { offsetInCU: 0x13872, offset: 0x13872, size: 0x8, addend: 0x0, symName: __ZNSt3__123__dispatch_copy_or_moveB8ue170006INS_17_ClassicAlgPolicyENS_20__move_backward_loopIS1_EENS_23__move_backward_trivialEPP4NodoS7_S7_EENS_4pairIT2_T4_EES9_T3_SA_, symObjAddr: 0xDEB8, symBinAddr: 0x100010420, symSize: 0x44 }
  - { offsetInCU: 0x138F0, offset: 0x138F0, size: 0x8, addend: 0x0, symName: __ZNSt3__121__unwrap_and_dispatchB8ue170006INS_10__overloadINS_20__move_backward_loopINS_17_ClassicAlgPolicyEEENS_23__move_backward_trivialEEEPP4NodoS9_S9_Li0EEENS_4pairIT0_T2_EESB_T1_SC_, symObjAddr: 0xDEFC, symBinAddr: 0x100010464, symSize: 0xB4 }
  - { offsetInCU: 0x13A00, offset: 0x13A00, size: 0x8, addend: 0x0, symName: __ZNSt3__128__copy_backward_trivial_implB8ue170006IP4NodoS2_EENS_4pairIPT_PT0_EES5_S5_S7_, symObjAddr: 0xDFF8, symBinAddr: 0x100010560, symSize: 0x90 }
  - { offsetInCU: 0x13A68, offset: 0x13A68, size: 0x8, addend: 0x0, symName: __ZNSt3__19make_pairB8ue170006IRPP4NodoS4_EENS_4pairINS_18__unwrap_ref_decayIT_E4typeENS6_IT0_E4typeEEEOS7_OSA_, symObjAddr: 0xE088, symBinAddr: 0x1000105F0, symSize: 0x38 }
  - { offsetInCU: 0x13AB7, offset: 0x13AB7, size: 0x8, addend: 0x0, symName: __ZNSt3__119__allocate_at_leastB8ue170006INS_9allocatorIP4NodoEEEENS_19__allocation_resultINS_16allocator_traitsIT_E7pointerEEERS7_m, symObjAddr: 0xE1D0, symBinAddr: 0x100010738, symSize: 0x40 }
  - { offsetInCU: 0x13B18, offset: 0x13B18, size: 0x8, addend: 0x0, symName: __ZNSt3__116__pad_and_outputB8ue170006IcNS_11char_traitsIcEEEENS_19ostreambuf_iteratorIT_T0_EES6_PKS4_S8_S8_RNS_8ios_baseES4_, symObjAddr: 0xFA88, symBinAddr: 0x100011FF0, symSize: 0x248 }
  - { offsetInCU: 0x13BE7, offset: 0x13BE7, size: 0x8, addend: 0x0, symName: __ZNSt3__112__to_addressB8ue170006IKcEEPT_S3_, symObjAddr: 0xFF00, symBinAddr: 0x100012468, symSize: 0x14 }
  - { offsetInCU: 0x13C4F, offset: 0x13C4F, size: 0x8, addend: 0x0, symName: __ZNSt3__19use_facetB8ue170006INS_5ctypeIcEEEERKT_RKNS_6localeE, symObjAddr: 0x101D0, symBinAddr: 0x100012738, symSize: 0x2C }
  - { offsetInCU: 0x1411C, offset: 0x1411C, size: 0x8, addend: 0x0, symName: __ZNSt3__118__constexpr_strlenB8ue170006EPKc, symObjAddr: 0x10268, symBinAddr: 0x1000127D0, symSize: 0x24 }
  - { offsetInCU: 0x14148, offset: 0x14148, size: 0x8, addend: 0x0, symName: __ZNSt3__1neB8ue170006ERKNS_21__tree_const_iteratorINS_12__value_typeIifEEPNS_11__tree_nodeIS2_PvEElEES9_, symObjAddr: 0x1035C, symBinAddr: 0x1000128C4, symSize: 0x34 }
  - { offsetInCU: 0x141B8, offset: 0x141B8, size: 0x8, addend: 0x0, symName: __ZNSt3__1neB8ue170006ERKNS_15__tree_iteratorIiPNS_11__tree_nodeIiPvEElEES7_, symObjAddr: 0x1056C, symBinAddr: 0x100012AD4, symSize: 0x34 }
  - { offsetInCU: 0x141F5, offset: 0x141F5, size: 0x8, addend: 0x0, symName: __ZNSt3__1eqB8ue170006ERKNS_15__tree_iteratorIiPNS_11__tree_nodeIiPvEElEES7_, symObjAddr: 0x10650, symBinAddr: 0x100012BB8, symSize: 0x30 }
  - { offsetInCU: 0x14607, offset: 0x14607, size: 0x8, addend: 0x0, symName: __ZNSt3__14swapB8ue170006IPPiEEvRT_S4_, symObjAddr: 0x11C7C, symBinAddr: 0x1000141E4, symSize: 0x3C }
  - { offsetInCU: 0x14658, offset: 0x14658, size: 0x8, addend: 0x0, symName: __ZNSt3__14moveB8ue170006IPPiS2_EET0_T_S4_S3_, symObjAddr: 0x11D60, symBinAddr: 0x1000142C8, symSize: 0x40 }
  - { offsetInCU: 0x146B2, offset: 0x146B2, size: 0x8, addend: 0x0, symName: __ZNSt3__16__moveB8ue170006INS_17_ClassicAlgPolicyEPPiS3_S3_EENS_4pairIT0_T2_EES5_T1_S6_, symObjAddr: 0x11E68, symBinAddr: 0x1000143D0, symSize: 0x44 }
  - { offsetInCU: 0x1471E, offset: 0x1471E, size: 0x8, addend: 0x0, symName: __ZNSt3__123__dispatch_copy_or_moveB8ue170006INS_17_ClassicAlgPolicyENS_11__move_loopIS1_EENS_14__move_trivialEPPiS6_S6_EENS_4pairIT2_T4_EES8_T3_S9_, symObjAddr: 0x11EAC, symBinAddr: 0x100014414, symSize: 0x44 }
  - { offsetInCU: 0x1479C, offset: 0x1479C, size: 0x8, addend: 0x0, symName: __ZNSt3__121__unwrap_and_dispatchB8ue170006INS_10__overloadINS_11__move_loopINS_17_ClassicAlgPolicyEEENS_14__move_trivialEEEPPiS8_S8_Li0EEENS_4pairIT0_T2_EESA_T1_SB_, symObjAddr: 0x11EF0, symBinAddr: 0x100014458, symSize: 0xB4 }
  - { offsetInCU: 0x1482A, offset: 0x1482A, size: 0x8, addend: 0x0, symName: __ZNSt3__114__unwrap_rangeB8ue170006IPPiS2_EENS_4pairIT0_S4_EET_S6_, symObjAddr: 0x11FA4, symBinAddr: 0x10001450C, symSize: 0x60 }
  - { offsetInCU: 0x14923, offset: 0x14923, size: 0x8, addend: 0x0, symName: __ZNSt3__113__unwrap_iterB8ue170006IPPiNS_18__unwrap_iter_implIS2_Lb1EEELi0EEEDTclsrT0_8__unwrapclsr3stdE7declvalIT_EEEES6_, symObjAddr: 0x1204C, symBinAddr: 0x1000145B4, symSize: 0x24 }
  - { offsetInCU: 0x14967, offset: 0x14967, size: 0x8, addend: 0x0, symName: __ZNSt3__19make_pairB8ue170006IPPiS2_EENS_4pairINS_18__unwrap_ref_decayIT_E4typeENS4_IT0_E4typeEEEOS5_OS8_, symObjAddr: 0x12070, symBinAddr: 0x1000145D8, symSize: 0x38 }
  - { offsetInCU: 0x149B6, offset: 0x149B6, size: 0x8, addend: 0x0, symName: __ZNSt3__114__rewrap_rangeB8ue170006IPPiS2_EET_S3_T0_, symObjAddr: 0x120A8, symBinAddr: 0x100014610, symSize: 0x2C }
  - { offsetInCU: 0x14A02, offset: 0x14A02, size: 0x8, addend: 0x0, symName: __ZNSt3__113__rewrap_iterB8ue170006IPPiS2_NS_18__unwrap_iter_implIS2_Lb1EEEEET_S5_T0_, symObjAddr: 0x120D4, symBinAddr: 0x10001463C, symSize: 0x50 }
  - { offsetInCU: 0x14A57, offset: 0x14A57, size: 0x8, addend: 0x0, symName: __ZNSt3__119__copy_trivial_implB8ue170006IPiS1_EENS_4pairIPT_PT0_EES4_S4_S6_, symObjAddr: 0x12124, symBinAddr: 0x10001468C, symSize: 0x80 }
  - { offsetInCU: 0x14ABF, offset: 0x14ABF, size: 0x8, addend: 0x0, symName: __ZNSt3__119__constexpr_memmoveB8ue170006IPiS1_Li0EEEPT_S3_PT0_NS_15__element_countE, symObjAddr: 0x121A4, symBinAddr: 0x10001470C, symSize: 0xA0 }
  - { offsetInCU: 0x14B2D, offset: 0x14B2D, size: 0x8, addend: 0x0, symName: __ZNSt3__19make_pairB8ue170006IRPPiS2_EENS_4pairINS_18__unwrap_ref_decayIT_E4typeENS5_IT0_E4typeEEEOS6_OS9_, symObjAddr: 0x12244, symBinAddr: 0x1000147AC, symSize: 0x38 }
  - { offsetInCU: 0x14BCF, offset: 0x14BCF, size: 0x8, addend: 0x0, symName: __ZNSt3__18distanceB8ue170006INS_13move_iteratorIPPiEEEENS_15iterator_traitsIT_E15difference_typeES6_S6_, symObjAddr: 0x12444, symBinAddr: 0x1000149AC, symSize: 0x3C }
  - { offsetInCU: 0x14C12, offset: 0x14C12, size: 0x8, addend: 0x0, symName: __ZNSt3__110__distanceB8ue170006INS_13move_iteratorIPPiEEEENS_15iterator_traitsIT_E15difference_typeES6_S6_NS_26random_access_iterator_tagE, symObjAddr: 0x12648, symBinAddr: 0x100014BB0, symSize: 0x30 }
  - { offsetInCU: 0x14C5F, offset: 0x14C5F, size: 0x8, addend: 0x0, symName: __ZNSt3__1miB8ue170006IPPiS2_EENS_13move_iteratorIT_E15difference_typeERKS5_RKNS3_IT0_EE, symObjAddr: 0x12678, symBinAddr: 0x100014BE0, symSize: 0x48 }
  - { offsetInCU: 0x14CAE, offset: 0x14CAE, size: 0x8, addend: 0x0, symName: __ZNSt3__113move_backwardB8ue170006IPPiS2_EET0_T_S4_S3_, symObjAddr: 0x12720, symBinAddr: 0x100014C88, symSize: 0x40 }
  - { offsetInCU: 0x14D08, offset: 0x14D08, size: 0x8, addend: 0x0, symName: __ZNSt3__115__move_backwardB8ue170006INS_17_ClassicAlgPolicyEPPiS3_S3_EENS_4pairIT0_T2_EES5_T1_S6_, symObjAddr: 0x12760, symBinAddr: 0x100014CC8, symSize: 0x44 }
  - { offsetInCU: 0x14D74, offset: 0x14D74, size: 0x8, addend: 0x0, symName: __ZNSt3__123__dispatch_copy_or_moveB8ue170006INS_17_ClassicAlgPolicyENS_20__move_backward_loopIS1_EENS_23__move_backward_trivialEPPiS6_S6_EENS_4pairIT2_T4_EES8_T3_S9_, symObjAddr: 0x127A4, symBinAddr: 0x100014D0C, symSize: 0x44 }
  - { offsetInCU: 0x14DF2, offset: 0x14DF2, size: 0x8, addend: 0x0, symName: __ZNSt3__121__unwrap_and_dispatchB8ue170006INS_10__overloadINS_20__move_backward_loopINS_17_ClassicAlgPolicyEEENS_23__move_backward_trivialEEEPPiS8_S8_Li0EEENS_4pairIT0_T2_EESA_T1_SB_, symObjAddr: 0x127E8, symBinAddr: 0x100014D50, symSize: 0xB4 }
  - { offsetInCU: 0x14E80, offset: 0x14E80, size: 0x8, addend: 0x0, symName: __ZNSt3__128__copy_backward_trivial_implB8ue170006IPiS1_EENS_4pairIPT_PT0_EES4_S4_S6_, symObjAddr: 0x128E4, symBinAddr: 0x100014E4C, symSize: 0x90 }
  - { offsetInCU: 0x14EE8, offset: 0x14EE8, size: 0x8, addend: 0x0, symName: __ZNSt3__19make_pairB8ue170006IRPPiS3_EENS_4pairINS_18__unwrap_ref_decayIT_E4typeENS5_IT0_E4typeEEEOS6_OS9_, symObjAddr: 0x12974, symBinAddr: 0x100014EDC, symSize: 0x38 }
  - { offsetInCU: 0x14F37, offset: 0x14F37, size: 0x8, addend: 0x0, symName: __ZNSt3__119__allocate_at_leastB8ue170006INS_9allocatorIPiEEEENS_19__allocation_resultINS_16allocator_traitsIT_E7pointerEEERS6_m, symObjAddr: 0x12ABC, symBinAddr: 0x100015024, symSize: 0x40 }
  - { offsetInCU: 0x14F7A, offset: 0x14F7A, size: 0x8, addend: 0x0, symName: __ZNSt3__120__throw_out_of_rangeB8ue170006EPKc, symObjAddr: 0x13158, symBinAddr: 0x1000156C0, symSize: 0x64 }
  - { offsetInCU: 0x14FA4, offset: 0x14FA4, size: 0x8, addend: 0x0, symName: __ZNSt3__18distanceB8ue170006INS_16__deque_iteratorI4NodoPKS2_RS3_PKS4_lLl85EEEEENS_15iterator_traitsIT_E15difference_typeESA_SA_, symObjAddr: 0x13D64, symBinAddr: 0x1000162CC, symSize: 0x4C }
  - { offsetInCU: 0x14FE7, offset: 0x14FE7, size: 0x8, addend: 0x0, symName: __ZNSt3__1neB8ue170006ERKNS_5dequeI4NodoNS_9allocatorIS1_EEE13__deque_rangeES7_, symObjAddr: 0x144F4, symBinAddr: 0x100016A5C, symSize: 0x34 }
  - { offsetInCU: 0x15024, offset: 0x15024, size: 0x8, addend: 0x0, symName: __ZNSt3__1eqB8ue170006ERKNS_5dequeI4NodoNS_9allocatorIS1_EEE13__deque_rangeES7_, symObjAddr: 0x14B40, symBinAddr: 0x1000170A8, symSize: 0x30 }
  - { offsetInCU: 0x15061, offset: 0x15061, size: 0x8, addend: 0x0, symName: __ZNSt3__110__distanceB8ue170006INS_16__deque_iteratorI4NodoPKS2_RS3_PKS4_lLl85EEEEENS_15iterator_traitsIT_E15difference_typeESA_SA_NS_26random_access_iterator_tagE, symObjAddr: 0x14C7C, symBinAddr: 0x1000171E4, symSize: 0x38 }
  - { offsetInCU: 0x150AE, offset: 0x150AE, size: 0x8, addend: 0x0, symName: __ZNSt3__1miB8ue170006ERKNS_16__deque_iteratorI4NodoPKS1_RS2_PKS3_lLl85EEES9_, symObjAddr: 0x14CB4, symBinAddr: 0x10001721C, symSize: 0xB0 }
  - { offsetInCU: 0x150EB, offset: 0x150EB, size: 0x8, addend: 0x0, symName: __ZNSt3__1neB8ue170006ERKNS_16__deque_iteratorI4NodoPKS1_RS2_PKS3_lLl85EEES9_, symObjAddr: 0x14D64, symBinAddr: 0x1000172CC, symSize: 0x34 }
  - { offsetInCU: 0x15128, offset: 0x15128, size: 0x8, addend: 0x0, symName: __ZNSt3__1eqB8ue170006ERKNS_16__deque_iteratorI4NodoPKS1_RS2_PKS3_lLl85EEES9_, symObjAddr: 0x14D98, symBinAddr: 0x100017300, symSize: 0x30 }
  - { offsetInCU: 0x15553, offset: 0x15553, size: 0x8, addend: 0x0, symName: __ZSt28__throw_bad_array_new_lengthB8ue170006v, symObjAddr: 0x3D88, symBinAddr: 0x1000062F0, symSize: 0x34 }
  - { offsetInCU: 0x167B6, offset: 0x167B6, size: 0x8, addend: 0x0, symName: __ZNSt3__16vectorIiNS_9allocatorIiEEE26__swap_out_circular_bufferERNS_14__split_bufferIiRS2_EE, symObjAddr: 0xA9DC, symBinAddr: 0x10000CF44, symSize: 0x110 }
  - { offsetInCU: 0x18CB7, offset: 0x18CB7, size: 0x8, addend: 0x0, symName: __ZNSt3__118basic_stringstreamIcNS_11char_traitsIcEENS_9allocatorIcEEEC1B8ue170006Ev, symObjAddr: 0x0, symBinAddr: 0x100002568, symSize: 0x110 }
  - { offsetInCU: 0x18CE6, offset: 0x18CE6, size: 0x8, addend: 0x0, symName: __ZNSt3__118basic_stringstreamIcNS_11char_traitsIcEENS_9allocatorIcEEED1Ev, symObjAddr: 0x110, symBinAddr: 0x100002678, symSize: 0x70 }
  - { offsetInCU: 0x18FAE, offset: 0x18FAE, size: 0x8, addend: 0x0, symName: __ZN3BFSC2ER5GrafoR4NodoS3_, symObjAddr: 0x180, symBinAddr: 0x1000026E8, symSize: 0x8A8 }
  - { offsetInCU: 0x190AA, offset: 0x190AA, size: 0x8, addend: 0x0, symName: __ZN5GrafoC1Ev, symObjAddr: 0xA28, symBinAddr: 0x100002F90, symSize: 0x2C }
  - { offsetInCU: 0x190D4, offset: 0x190D4, size: 0x8, addend: 0x0, symName: __ZN4NodoC1Ev, symObjAddr: 0xA54, symBinAddr: 0x100002FBC, symSize: 0x2C }
  - { offsetInCU: 0x190FE, offset: 0x190FE, size: 0x8, addend: 0x0, symName: __ZNSt3__13setIiNS_4lessIiEENS_9allocatorIiEEEC1B8ue170006Ev, symObjAddr: 0xA80, symBinAddr: 0x100002FE8, symSize: 0x2C }
  - { offsetInCU: 0x19128, offset: 0x19128, size: 0x8, addend: 0x0, symName: __ZNSt3__16vectorIiNS_9allocatorIiEEEC1B8ue170006Ev, symObjAddr: 0xAAC, symBinAddr: 0x100003014, symSize: 0x2C }
  - { offsetInCU: 0x19152, offset: 0x19152, size: 0x8, addend: 0x0, symName: __ZN4NodoC1ERKS_, symObjAddr: 0xAD8, symBinAddr: 0x100003040, symSize: 0x34 }
  - { offsetInCU: 0x19187, offset: 0x19187, size: 0x8, addend: 0x0, symName: __ZN4Nodo5getIdEv, symObjAddr: 0xB0C, symBinAddr: 0x100003074, symSize: 0x18 }
  - { offsetInCU: 0x191AD, offset: 0x191AD, size: 0x8, addend: 0x0, symName: __ZN3BFS14printCaso1nodoE4NodoS0_, symObjAddr: 0xB24, symBinAddr: 0x10000308C, symSize: 0x238 }
  - { offsetInCU: 0x191F3, offset: 0x191F3, size: 0x8, addend: 0x0, symName: __ZN4NodoD1Ev, symObjAddr: 0xD5C, symBinAddr: 0x1000032C4, symSize: 0x2C }
  - { offsetInCU: 0x1921F, offset: 0x1921F, size: 0x8, addend: 0x0, symName: __ZNSt3__16vectorIiNS_9allocatorIiEEE6resizeEmRKi, symObjAddr: 0xD94, symBinAddr: 0x1000032FC, symSize: 0x9C }
  - { offsetInCU: 0x19274, offset: 0x19274, size: 0x8, addend: 0x0, symName: __ZN5Grafo8getNodosEv, symObjAddr: 0xE30, symBinAddr: 0x100003398, symSize: 0x38 }
  - { offsetInCU: 0x1929A, offset: 0x1929A, size: 0x8, addend: 0x0, symName: __ZNKSt3__16vectorI4NodoNS_9allocatorIS1_EEE4sizeB8ue170006Ev, symObjAddr: 0xE68, symBinAddr: 0x1000033D0, symSize: 0x28 }
  - { offsetInCU: 0x192C0, offset: 0x192C0, size: 0x8, addend: 0x0, symName: __ZNSt3__16vectorI4NodoNS_9allocatorIS1_EEED1B8ue170006Ev, symObjAddr: 0xE90, symBinAddr: 0x1000033F8, symSize: 0x2C }
  - { offsetInCU: 0x192EA, offset: 0x192EA, size: 0x8, addend: 0x0, symName: __ZNSt3__16vectorIiNS_9allocatorIiEEEixB8ue170006Em, symObjAddr: 0xEBC, symBinAddr: 0x100003424, symSize: 0x24 }
  - { offsetInCU: 0x1932B, offset: 0x1932B, size: 0x8, addend: 0x0, symName: __ZN5GrafoaSERKS_, symObjAddr: 0xEE0, symBinAddr: 0x100003448, symSize: 0x70 }
  - { offsetInCU: 0x1935C, offset: 0x1935C, size: 0x8, addend: 0x0, symName: __ZNSt3__15queueI4NodoNS_5dequeIS1_NS_9allocatorIS1_EEEEEC1B8ue170006Ev, symObjAddr: 0xF50, symBinAddr: 0x1000034B8, symSize: 0x2C }
  - { offsetInCU: 0x19386, offset: 0x19386, size: 0x8, addend: 0x0, symName: __ZNSt3__15queueI4NodoNS_5dequeIS1_NS_9allocatorIS1_EEEEE4pushB8ue170006ERKS1_, symObjAddr: 0xF7C, symBinAddr: 0x1000034E4, symSize: 0x2C }
  - { offsetInCU: 0x193BB, offset: 0x193BB, size: 0x8, addend: 0x0, symName: __ZNSt3__13setIiNS_4lessIiEENS_9allocatorIiEEE6insertB8ue170006ERKi, symObjAddr: 0xFA8, symBinAddr: 0x100003510, symSize: 0x4C }
  - { offsetInCU: 0x193F0, offset: 0x193F0, size: 0x8, addend: 0x0, symName: __ZN3BFS8cabezeraE4NodoS0_, symObjAddr: 0xFF4, symBinAddr: 0x10000355C, symSize: 0x188 }
  - { offsetInCU: 0x19436, offset: 0x19436, size: 0x8, addend: 0x0, symName: __ZNKSt3__15queueI4NodoNS_5dequeIS1_NS_9allocatorIS1_EEEEE5emptyB8ue170006Ev, symObjAddr: 0x117C, symBinAddr: 0x1000036E4, symSize: 0x28 }
  - { offsetInCU: 0x1945C, offset: 0x1945C, size: 0x8, addend: 0x0, symName: __ZNSt3__15queueI4NodoNS_5dequeIS1_NS_9allocatorIS1_EEEEE5frontB8ue170006Ev, symObjAddr: 0x11A4, symBinAddr: 0x10000370C, symSize: 0x24 }
  - { offsetInCU: 0x19482, offset: 0x19482, size: 0x8, addend: 0x0, symName: __ZNSt3__15queueI4NodoNS_5dequeIS1_NS_9allocatorIS1_EEEEE3popB8ue170006Ev, symObjAddr: 0x11C8, symBinAddr: 0x100003730, symSize: 0x24 }
  - { offsetInCU: 0x194A8, offset: 0x194A8, size: 0x8, addend: 0x0, symName: __ZN4NodoeqERKS_, symObjAddr: 0x11EC, symBinAddr: 0x100003754, symSize: 0x30 }
  - { offsetInCU: 0x194DC, offset: 0x194DC, size: 0x8, addend: 0x0, symName: __ZN3BFS8printBFSE4NodoS0_, symObjAddr: 0x121C, symBinAddr: 0x100003784, symSize: 0x3A0 }
  - { offsetInCU: 0x1954F, offset: 0x1954F, size: 0x8, addend: 0x0, symName: __ZNSt3__113basic_ostreamIcNS_11char_traitsIcEEElsB8ue170006EPFRS3_S4_E, symObjAddr: 0x1604, symBinAddr: 0x100003B6C, symSize: 0x2C }
  - { offsetInCU: 0x19583, offset: 0x19583, size: 0x8, addend: 0x0, symName: __ZN4Nodo10getVecinosEv, symObjAddr: 0x1688, symBinAddr: 0x100003BF0, symSize: 0x3C }
  - { offsetInCU: 0x195A9, offset: 0x195A9, size: 0x8, addend: 0x0, symName: __ZNKSt3__13mapIifNS_4lessIiEENS_9allocatorINS_4pairIKifEEEEE5beginB8ue170006Ev, symObjAddr: 0x16C4, symBinAddr: 0x100003C2C, symSize: 0x38 }
  - { offsetInCU: 0x195CF, offset: 0x195CF, size: 0x8, addend: 0x0, symName: __ZNKSt3__13mapIifNS_4lessIiEENS_9allocatorINS_4pairIKifEEEEE3endB8ue170006Ev, symObjAddr: 0x16FC, symBinAddr: 0x100003C64, symSize: 0x38 }
  - { offsetInCU: 0x195F5, offset: 0x195F5, size: 0x8, addend: 0x0, symName: __ZNKSt3__120__map_const_iteratorINS_21__tree_const_iteratorINS_12__value_typeIifEEPNS_11__tree_nodeIS3_PvEElEEEdeB8ue170006Ev, symObjAddr: 0x1764, symBinAddr: 0x100003CCC, symSize: 0x28 }
  - { offsetInCU: 0x1961B, offset: 0x1961B, size: 0x8, addend: 0x0, symName: __ZNSt3__13setIiNS_4lessIiEENS_9allocatorIiEEE4findB8ue170006ERKi, symObjAddr: 0x17BC, symBinAddr: 0x100003D24, symSize: 0x40 }
  - { offsetInCU: 0x19650, offset: 0x19650, size: 0x8, addend: 0x0, symName: __ZNSt3__13setIiNS_4lessIiEENS_9allocatorIiEEE3endB8ue170006Ev, symObjAddr: 0x17FC, symBinAddr: 0x100003D64, symSize: 0x38 }
  - { offsetInCU: 0x19676, offset: 0x19676, size: 0x8, addend: 0x0, symName: __ZNSt3__16vectorI4NodoNS_9allocatorIS1_EEEixB8ue170006Em, symObjAddr: 0x1834, symBinAddr: 0x100003D9C, symSize: 0x2C }
  - { offsetInCU: 0x196AD, offset: 0x196AD, size: 0x8, addend: 0x0, symName: __ZNSt3__120__map_const_iteratorINS_21__tree_const_iteratorINS_12__value_typeIifEEPNS_11__tree_nodeIS3_PvEElEEEppB8ue170006Ev, symObjAddr: 0x1860, symBinAddr: 0x100003DC8, symSize: 0x2C }
  - { offsetInCU: 0x196D3, offset: 0x196D3, size: 0x8, addend: 0x0, symName: __ZNSt3__13mapIifNS_4lessIiEENS_9allocatorINS_4pairIKifEEEEED1B8ue170006Ev, symObjAddr: 0x188C, symBinAddr: 0x100003DF4, symSize: 0x2C }
  - { offsetInCU: 0x196FD, offset: 0x196FD, size: 0x8, addend: 0x0, symName: __ZN3BFS9IteracionE4NodoRNSt3__15queueIS0_NS1_5dequeIS0_NS1_9allocatorIS0_EEEEEEi, symObjAddr: 0x18B8, symBinAddr: 0x100003E20, symSize: 0x27C }
  - { offsetInCU: 0x197AB, offset: 0x197AB, size: 0x8, addend: 0x0, symName: __ZNSt3__15queueI4NodoNS_5dequeIS1_NS_9allocatorIS1_EEEEED1Ev, symObjAddr: 0x1B34, symBinAddr: 0x10000409C, symSize: 0x2C }
  - { offsetInCU: 0x197D8, offset: 0x197D8, size: 0x8, addend: 0x0, symName: __ZNSt3__16vectorIiNS_9allocatorIiEEED1B8ue170006Ev, symObjAddr: 0x1B60, symBinAddr: 0x1000040C8, symSize: 0x2C }
  - { offsetInCU: 0x19802, offset: 0x19802, size: 0x8, addend: 0x0, symName: __ZNSt3__13setIiNS_4lessIiEENS_9allocatorIiEEED1B8ue170006Ev, symObjAddr: 0x1B8C, symBinAddr: 0x1000040F4, symSize: 0x2C }
  - { offsetInCU: 0x1982C, offset: 0x1982C, size: 0x8, addend: 0x0, symName: __ZN5GrafoD1Ev, symObjAddr: 0x1BB8, symBinAddr: 0x100004120, symSize: 0x2C }
  - { offsetInCU: 0x19858, offset: 0x19858, size: 0x8, addend: 0x0, symName: __ZN3BFSC1ER5GrafoR4NodoS3_, symObjAddr: 0x1BE4, symBinAddr: 0x10000414C, symSize: 0x44 }
  - { offsetInCU: 0x198DB, offset: 0x198DB, size: 0x8, addend: 0x0, symName: __ZNSt3__15stackIiNS_5dequeIiNS_9allocatorIiEEEEEC1B8ue170006Ev, symObjAddr: 0x1C28, symBinAddr: 0x100004190, symSize: 0x2C }
  - { offsetInCU: 0x19905, offset: 0x19905, size: 0x8, addend: 0x0, symName: __ZNSt3__15stackIiNS_5dequeIiNS_9allocatorIiEEEEE4pushB8ue170006ERKi, symObjAddr: 0x1C54, symBinAddr: 0x1000041BC, symSize: 0x2C }
  - { offsetInCU: 0x1993A, offset: 0x1993A, size: 0x8, addend: 0x0, symName: __ZNKSt3__13mapIifNS_4lessIiEENS_9allocatorINS_4pairIKifEEEEE2atERS5_, symObjAddr: 0x1C80, symBinAddr: 0x1000041E8, symSize: 0x68 }
  - { offsetInCU: 0x1998F, offset: 0x1998F, size: 0x8, addend: 0x0, symName: __ZNKSt3__15stackIiNS_5dequeIiNS_9allocatorIiEEEEE5emptyB8ue170006Ev, symObjAddr: 0x1CE8, symBinAddr: 0x100004250, symSize: 0x28 }
  - { offsetInCU: 0x199B5, offset: 0x199B5, size: 0x8, addend: 0x0, symName: __ZNSt3__15stackIiNS_5dequeIiNS_9allocatorIiEEEEE3topB8ue170006Ev, symObjAddr: 0x1D10, symBinAddr: 0x100004278, symSize: 0x24 }
  - { offsetInCU: 0x199DB, offset: 0x199DB, size: 0x8, addend: 0x0, symName: __ZNSt3__15stackIiNS_5dequeIiNS_9allocatorIiEEEEE3popB8ue170006Ev, symObjAddr: 0x1D34, symBinAddr: 0x10000429C, symSize: 0x24 }
  - { offsetInCU: 0x19A01, offset: 0x19A01, size: 0x8, addend: 0x0, symName: __ZNKSt3__118basic_stringstreamIcNS_11char_traitsIcEENS_9allocatorIcEEE3strB8ue170006Ev, symObjAddr: 0x1D58, symBinAddr: 0x1000042C0, symSize: 0x30 }
  - { offsetInCU: 0x19A27, offset: 0x19A27, size: 0x8, addend: 0x0, symName: __ZNSt3__15stackIiNS_5dequeIiNS_9allocatorIiEEEEED1Ev, symObjAddr: 0x1D88, symBinAddr: 0x1000042F0, symSize: 0x2C }
  - { offsetInCU: 0x19A53, offset: 0x19A53, size: 0x8, addend: 0x0, symName: __ZNSt3__15queueI4NodoNS_5dequeIS1_NS_9allocatorIS1_EEEEEC1B8ue170006ERKS6_, symObjAddr: 0x1DB4, symBinAddr: 0x10000431C, symSize: 0x34 }
  - { offsetInCU: 0x19A8C, offset: 0x19A8C, size: 0x8, addend: 0x0, symName: __ZNSt3__118basic_stringstreamIcNS_11char_traitsIcEENS_9allocatorIcEEED2Ev, symObjAddr: 0x1DE8, symBinAddr: 0x100004350, symSize: 0xA4 }
  - { offsetInCU: 0x19AC6, offset: 0x19AC6, size: 0x8, addend: 0x0, symName: __ZThn16_NSt3__118basic_stringstreamIcNS_11char_traitsIcEENS_9allocatorIcEEED1Ev, symObjAddr: 0x1E8C, symBinAddr: 0x1000043F4, symSize: 0x1C }
  - { offsetInCU: 0x19ADD, offset: 0x19ADD, size: 0x8, addend: 0x0, symName: __ZTv0_n24_NSt3__118basic_stringstreamIcNS_11char_traitsIcEENS_9allocatorIcEEED1Ev, symObjAddr: 0x1EA8, symBinAddr: 0x100004410, symSize: 0x28 }
  - { offsetInCU: 0x19AF9, offset: 0x19AF9, size: 0x8, addend: 0x0, symName: __ZNSt3__115basic_stringbufIcNS_11char_traitsIcEENS_9allocatorIcEEED1Ev, symObjAddr: 0x1ED0, symBinAddr: 0x100004438, symSize: 0x2C }
  - { offsetInCU: 0x19B26, offset: 0x19B26, size: 0x8, addend: 0x0, symName: __ZNSt3__115basic_stringbufIcNS_11char_traitsIcEENS_9allocatorIcEEED2Ev, symObjAddr: 0x1EFC, symBinAddr: 0x100004464, symSize: 0x78 }
  - { offsetInCU: 0x19B53, offset: 0x19B53, size: 0x8, addend: 0x0, symName: __ZN5GrafoC2Ev, symObjAddr: 0x1F74, symBinAddr: 0x1000044DC, symSize: 0xAC }
  - { offsetInCU: 0x19B7D, offset: 0x19B7D, size: 0x8, addend: 0x0, symName: __ZNSt3__16vectorI4NodoNS_9allocatorIS1_EEEC1B8ue170006Ev, symObjAddr: 0x2020, symBinAddr: 0x100004588, symSize: 0x2C }
  - { offsetInCU: 0x19BA7, offset: 0x19BA7, size: 0x8, addend: 0x0, symName: __ZN15MatrizDistanciaC1Ev, symObjAddr: 0x204C, symBinAddr: 0x1000045B4, symSize: 0x2C }
  - { offsetInCU: 0x19BD1, offset: 0x19BD1, size: 0x8, addend: 0x0, symName: __ZNSt3__16vectorI4NodoNS_9allocatorIS1_EEEC2B8ue170006Ev, symObjAddr: 0x2078, symBinAddr: 0x1000045E0, symSize: 0x44 }
  - { offsetInCU: 0x19C07, offset: 0x19C07, size: 0x8, addend: 0x0, symName: __ZNSt3__117__compressed_pairIP4NodoNS_9allocatorIS1_EEEC1B8ue170006IDnNS_18__default_init_tagEEEOT_OT0_, symObjAddr: 0x20BC, symBinAddr: 0x100004624, symSize: 0x3C }
  - { offsetInCU: 0x19C5F, offset: 0x19C5F, size: 0x8, addend: 0x0, symName: __ZNSt3__117__compressed_pairIP4NodoNS_9allocatorIS1_EEEC2B8ue170006IDnNS_18__default_init_tagEEEOT_OT0_, symObjAddr: 0x20F8, symBinAddr: 0x100004660, symSize: 0x40 }
  - { offsetInCU: 0x19CB7, offset: 0x19CB7, size: 0x8, addend: 0x0, symName: __ZNSt3__122__compressed_pair_elemIP4NodoLi0ELb0EEC2B8ue170006IDnvEEOT_, symObjAddr: 0x2138, symBinAddr: 0x1000046A0, symSize: 0x1C }
  - { offsetInCU: 0x19CF9, offset: 0x19CF9, size: 0x8, addend: 0x0, symName: __ZNSt3__122__compressed_pair_elemINS_9allocatorI4NodoEELi1ELb1EEC2B8ue170006ENS_18__default_init_tagE, symObjAddr: 0x2154, symBinAddr: 0x1000046BC, symSize: 0x2C }
  - { offsetInCU: 0x19D2D, offset: 0x19D2D, size: 0x8, addend: 0x0, symName: __ZNSt3__19allocatorI4NodoEC2B8ue170006Ev, symObjAddr: 0x2180, symBinAddr: 0x1000046E8, symSize: 0x2C }
  - { offsetInCU: 0x19D57, offset: 0x19D57, size: 0x8, addend: 0x0, symName: __ZNSt3__116__non_trivial_ifILb1ENS_9allocatorI4NodoEEEC2B8ue170006Ev, symObjAddr: 0x21AC, symBinAddr: 0x100004714, symSize: 0x14 }
  - { offsetInCU: 0x19D81, offset: 0x19D81, size: 0x8, addend: 0x0, symName: __ZN15MatrizDistanciaC2Ev, symObjAddr: 0x21C0, symBinAddr: 0x100004728, symSize: 0x14 }
  - { offsetInCU: 0x19DAB, offset: 0x19DAB, size: 0x8, addend: 0x0, symName: __ZN4NodoC2Ev, symObjAddr: 0x21D4, symBinAddr: 0x10000473C, symSize: 0x70 }
  - { offsetInCU: 0x19DD5, offset: 0x19DD5, size: 0x8, addend: 0x0, symName: __ZNSt3__13mapIifNS_4lessIiEENS_9allocatorINS_4pairIKifEEEEEC1B8ue170006Ev, symObjAddr: 0x2244, symBinAddr: 0x1000047AC, symSize: 0x2C }
  - { offsetInCU: 0x19DFF, offset: 0x19DFF, size: 0x8, addend: 0x0, symName: __ZNSt3__13mapIifNS_4lessIiEENS_9allocatorINS_4pairIKifEEEEEC2B8ue170006Ev, symObjAddr: 0x2270, symBinAddr: 0x1000047D8, symSize: 0x40 }
  - { offsetInCU: 0x19E29, offset: 0x19E29, size: 0x8, addend: 0x0, symName: __ZNSt3__119__map_value_compareIiNS_12__value_typeIifEENS_4lessIiEELb1EEC1B8ue170006ES4_, symObjAddr: 0x22B0, symBinAddr: 0x100004818, symSize: 0x2C }
  - { offsetInCU: 0x19E62, offset: 0x19E62, size: 0x8, addend: 0x0, symName: __ZNSt3__16__treeINS_12__value_typeIifEENS_19__map_value_compareIiS2_NS_4lessIiEELb1EEENS_9allocatorIS2_EEEC1ERKS6_, symObjAddr: 0x22DC, symBinAddr: 0x100004844, symSize: 0x34 }
  - { offsetInCU: 0x19E9D, offset: 0x19E9D, size: 0x8, addend: 0x0, symName: __ZNSt3__119__map_value_compareIiNS_12__value_typeIifEENS_4lessIiEELb1EEC2B8ue170006ES4_, symObjAddr: 0x2310, symBinAddr: 0x100004878, symSize: 0x14 }
  - { offsetInCU: 0x19ED6, offset: 0x19ED6, size: 0x8, addend: 0x0, symName: __ZNSt3__16__treeINS_12__value_typeIifEENS_19__map_value_compareIiS2_NS_4lessIiEELb1EEENS_9allocatorIS2_EEEC2ERKS6_, symObjAddr: 0x2324, symBinAddr: 0x10000488C, symSize: 0x70 }
  - { offsetInCU: 0x19F11, offset: 0x19F11, size: 0x8, addend: 0x0, symName: __ZNSt3__117__compressed_pairINS_15__tree_end_nodeIPNS_16__tree_node_baseIPvEEEENS_9allocatorINS_11__tree_nodeINS_12__value_typeIifEES3_EEEEEC1B8ue170006ILb1EvEEv, symObjAddr: 0x2394, symBinAddr: 0x1000048FC, symSize: 0x2C }
  - { offsetInCU: 0x19F4C, offset: 0x19F4C, size: 0x8, addend: 0x0, symName: __ZNSt3__117__compressed_pairImNS_19__map_value_compareIiNS_12__value_typeIifEENS_4lessIiEELb1EEEEC1B8ue170006IiRKS6_EEOT_OT0_, symObjAddr: 0x23C0, symBinAddr: 0x100004928, symSize: 0x3C }
  - { offsetInCU: 0x19FA4, offset: 0x19FA4, size: 0x8, addend: 0x0, symName: __ZNSt3__16__treeINS_12__value_typeIifEENS_19__map_value_compareIiS2_NS_4lessIiEELb1EEENS_9allocatorIS2_EEE10__end_nodeB8ue170006Ev, symObjAddr: 0x23FC, symBinAddr: 0x100004964, symSize: 0x2C }
  - { offsetInCU: 0x19FCA, offset: 0x19FCA, size: 0x8, addend: 0x0, symName: __ZNSt3__16__treeINS_12__value_typeIifEENS_19__map_value_compareIiS2_NS_4lessIiEELb1EEENS_9allocatorIS2_EEE12__begin_nodeB8ue170006Ev, symObjAddr: 0x2428, symBinAddr: 0x100004990, symSize: 0x14 }
  - { offsetInCU: 0x19FF0, offset: 0x19FF0, size: 0x8, addend: 0x0, symName: __ZNSt3__117__compressed_pairINS_15__tree_end_nodeIPNS_16__tree_node_baseIPvEEEENS_9allocatorINS_11__tree_nodeINS_12__value_typeIifEES3_EEEEEC2B8ue170006ILb1EvEEv, symObjAddr: 0x243C, symBinAddr: 0x1000049A4, symSize: 0x34 }
  - { offsetInCU: 0x1A025, offset: 0x1A025, size: 0x8, addend: 0x0, symName: __ZNSt3__122__compressed_pair_elemINS_15__tree_end_nodeIPNS_16__tree_node_baseIPvEEEELi0ELb0EEC2B8ue170006ENS_16__value_init_tagE, symObjAddr: 0x2470, symBinAddr: 0x1000049D8, symSize: 0x2C }
  - { offsetInCU: 0x1A059, offset: 0x1A059, size: 0x8, addend: 0x0, symName: __ZNSt3__122__compressed_pair_elemINS_9allocatorINS_11__tree_nodeINS_12__value_typeIifEEPvEEEELi1ELb1EEC2B8ue170006ENS_16__value_init_tagE, symObjAddr: 0x249C, symBinAddr: 0x100004A04, symSize: 0x2C }
  - { offsetInCU: 0x1A08D, offset: 0x1A08D, size: 0x8, addend: 0x0, symName: __ZNSt3__115__tree_end_nodeIPNS_16__tree_node_baseIPvEEEC1B8ue170006Ev, symObjAddr: 0x24C8, symBinAddr: 0x100004A30, symSize: 0x2C }
  - { offsetInCU: 0x1A0B7, offset: 0x1A0B7, size: 0x8, addend: 0x0, symName: __ZNSt3__115__tree_end_nodeIPNS_16__tree_node_baseIPvEEEC2B8ue170006Ev, symObjAddr: 0x24F4, symBinAddr: 0x100004A5C, symSize: 0x18 }
  - { offsetInCU: 0x1A0E1, offset: 0x1A0E1, size: 0x8, addend: 0x0, symName: __ZNSt3__19allocatorINS_11__tree_nodeINS_12__value_typeIifEEPvEEEC2B8ue170006Ev, symObjAddr: 0x250C, symBinAddr: 0x100004A74, symSize: 0x2C }
  - { offsetInCU: 0x1A10B, offset: 0x1A10B, size: 0x8, addend: 0x0, symName: __ZNSt3__116__non_trivial_ifILb1ENS_9allocatorINS_11__tree_nodeINS_12__value_typeIifEEPvEEEEEC2B8ue170006Ev, symObjAddr: 0x2538, symBinAddr: 0x100004AA0, symSize: 0x14 }
  - { offsetInCU: 0x1A135, offset: 0x1A135, size: 0x8, addend: 0x0, symName: __ZNSt3__117__compressed_pairImNS_19__map_value_compareIiNS_12__value_typeIifEENS_4lessIiEELb1EEEEC2B8ue170006IiRKS6_EEOT_OT0_, symObjAddr: 0x254C, symBinAddr: 0x100004AB4, symSize: 0x44 }
  - { offsetInCU: 0x1A18D, offset: 0x1A18D, size: 0x8, addend: 0x0, symName: __ZNSt3__122__compressed_pair_elemImLi0ELb0EEC2B8ue170006IivEEOT_, symObjAddr: 0x2590, symBinAddr: 0x100004AF8, symSize: 0x24 }
  - { offsetInCU: 0x1A1CF, offset: 0x1A1CF, size: 0x8, addend: 0x0, symName: __ZNSt3__122__compressed_pair_elemINS_19__map_value_compareIiNS_12__value_typeIifEENS_4lessIiEELb1EEELi1ELb1EEC2B8ue170006IRKS6_vEEOT_, symObjAddr: 0x25B4, symBinAddr: 0x100004B1C, symSize: 0x18 }
  - { offsetInCU: 0x1A211, offset: 0x1A211, size: 0x8, addend: 0x0, symName: __ZNSt3__114pointer_traitsIPNS_15__tree_end_nodeIPNS_16__tree_node_baseIPvEEEEE10pointer_toB8ue170006ERS6_, symObjAddr: 0x25CC, symBinAddr: 0x100004B34, symSize: 0x14 }
  - { offsetInCU: 0x1A234, offset: 0x1A234, size: 0x8, addend: 0x0, symName: __ZNSt3__117__compressed_pairINS_15__tree_end_nodeIPNS_16__tree_node_baseIPvEEEENS_9allocatorINS_11__tree_nodeINS_12__value_typeIifEES3_EEEEE5firstB8ue170006Ev, symObjAddr: 0x25E0, symBinAddr: 0x100004B48, symSize: 0x24 }
  - { offsetInCU: 0x1A25A, offset: 0x1A25A, size: 0x8, addend: 0x0, symName: __ZNSt3__122__compressed_pair_elemINS_15__tree_end_nodeIPNS_16__tree_node_baseIPvEEEELi0ELb0EE5__getB8ue170006Ev, symObjAddr: 0x2604, symBinAddr: 0x100004B6C, symSize: 0x14 }
  - { offsetInCU: 0x1A280, offset: 0x1A280, size: 0x8, addend: 0x0, symName: __ZN4NodoC2ERKS_, symObjAddr: 0x2618, symBinAddr: 0x100004B80, symSize: 0x54 }
  - { offsetInCU: 0x1A2B5, offset: 0x1A2B5, size: 0x8, addend: 0x0, symName: __ZNSt3__13mapIifNS_4lessIiEENS_9allocatorINS_4pairIKifEEEEEC1B8ue170006ERKS8_, symObjAddr: 0x266C, symBinAddr: 0x100004BD4, symSize: 0x34 }
  - { offsetInCU: 0x1A2EE, offset: 0x1A2EE, size: 0x8, addend: 0x0, symName: __ZNSt3__13mapIifNS_4lessIiEENS_9allocatorINS_4pairIKifEEEEEC2B8ue170006ERKS8_, symObjAddr: 0x26A0, symBinAddr: 0x100004C08, symSize: 0x90 }
  - { offsetInCU: 0x1A327, offset: 0x1A327, size: 0x8, addend: 0x0, symName: __ZNSt3__16__treeINS_12__value_typeIifEENS_19__map_value_compareIiS2_NS_4lessIiEELb1EEENS_9allocatorIS2_EEEC1ERKS9_, symObjAddr: 0x2730, symBinAddr: 0x100004C98, symSize: 0x34 }
  - { offsetInCU: 0x1A362, offset: 0x1A362, size: 0x8, addend: 0x0, symName: __ZNSt3__13mapIifNS_4lessIiEENS_9allocatorINS_4pairIKifEEEEE6insertB8ue170006INS_20__map_const_iteratorINS_21__tree_const_iteratorINS_12__value_typeIifEEPNS_11__tree_nodeISD_PvEElEEEEEEvT_SK_, symObjAddr: 0x2764, symBinAddr: 0x100004CCC, symSize: 0x8C }
  - { offsetInCU: 0x1A3CC, offset: 0x1A3CC, size: 0x8, addend: 0x0, symName: __ZNSt3__16__treeINS_12__value_typeIifEENS_19__map_value_compareIiS2_NS_4lessIiEELb1EEENS_9allocatorIS2_EEED1Ev, symObjAddr: 0x27F0, symBinAddr: 0x100004D58, symSize: 0x2C }
  - { offsetInCU: 0x1A3F8, offset: 0x1A3F8, size: 0x8, addend: 0x0, symName: __ZNSt3__16__treeINS_12__value_typeIifEENS_19__map_value_compareIiS2_NS_4lessIiEELb1EEENS_9allocatorIS2_EEEC2ERKS9_, symObjAddr: 0x281C, symBinAddr: 0x100004D84, symSize: 0x9C }
  - { offsetInCU: 0x1A43D, offset: 0x1A43D, size: 0x8, addend: 0x0, symName: __ZNSt3__116allocator_traitsINS_9allocatorINS_11__tree_nodeINS_12__value_typeIifEEPvEEEEE37select_on_container_copy_constructionB8ue170006IS7_vvEES7_RKS7_, symObjAddr: 0x28B8, symBinAddr: 0x100004E20, symSize: 0x10 }
  - { offsetInCU: 0x1A46C, offset: 0x1A46C, size: 0x8, addend: 0x0, symName: __ZNKSt3__16__treeINS_12__value_typeIifEENS_19__map_value_compareIiS2_NS_4lessIiEELb1EEENS_9allocatorIS2_EEE12__node_allocB8ue170006Ev, symObjAddr: 0x28C8, symBinAddr: 0x100004E30, symSize: 0x28 }
  - { offsetInCU: 0x1A498, offset: 0x1A498, size: 0x8, addend: 0x0, symName: __ZNSt3__117__compressed_pairINS_15__tree_end_nodeIPNS_16__tree_node_baseIPvEEEENS_9allocatorINS_11__tree_nodeINS_12__value_typeIifEES3_EEEEEC1B8ue170006INS_18__default_init_tagESC_EEOT_OT0_, symObjAddr: 0x28F0, symBinAddr: 0x100004E58, symSize: 0x3C }
  - { offsetInCU: 0x1A4F0, offset: 0x1A4F0, size: 0x8, addend: 0x0, symName: __ZNKSt3__16__treeINS_12__value_typeIifEENS_19__map_value_compareIiS2_NS_4lessIiEELb1EEENS_9allocatorIS2_EEE10value_compB8ue170006Ev, symObjAddr: 0x292C, symBinAddr: 0x100004E94, symSize: 0x28 }
  - { offsetInCU: 0x1A516, offset: 0x1A516, size: 0x8, addend: 0x0, symName: __ZNKSt3__117__compressed_pairINS_15__tree_end_nodeIPNS_16__tree_node_baseIPvEEEENS_9allocatorINS_11__tree_nodeINS_12__value_typeIifEES3_EEEEE6secondB8ue170006Ev, symObjAddr: 0x2954, symBinAddr: 0x100004EBC, symSize: 0x24 }
  - { offsetInCU: 0x1A53C, offset: 0x1A53C, size: 0x8, addend: 0x0, symName: __ZNKSt3__122__compressed_pair_elemINS_9allocatorINS_11__tree_nodeINS_12__value_typeIifEEPvEEEELi1ELb1EE5__getB8ue170006Ev, symObjAddr: 0x2978, symBinAddr: 0x100004EE0, symSize: 0x14 }
  - { offsetInCU: 0x1A562, offset: 0x1A562, size: 0x8, addend: 0x0, symName: __ZNSt3__117__compressed_pairINS_15__tree_end_nodeIPNS_16__tree_node_baseIPvEEEENS_9allocatorINS_11__tree_nodeINS_12__value_typeIifEES3_EEEEEC2B8ue170006INS_18__default_init_tagESC_EEOT_OT0_, symObjAddr: 0x298C, symBinAddr: 0x100004EF4, symSize: 0x40 }
  - { offsetInCU: 0x1A5BA, offset: 0x1A5BA, size: 0x8, addend: 0x0, symName: __ZNSt3__122__compressed_pair_elemINS_15__tree_end_nodeIPNS_16__tree_node_baseIPvEEEELi0ELb0EEC2B8ue170006ENS_18__default_init_tagE, symObjAddr: 0x29CC, symBinAddr: 0x100004F34, symSize: 0x2C }
  - { offsetInCU: 0x1A5EE, offset: 0x1A5EE, size: 0x8, addend: 0x0, symName: __ZNSt3__122__compressed_pair_elemINS_9allocatorINS_11__tree_nodeINS_12__value_typeIifEEPvEEEELi1ELb1EEC2B8ue170006IS7_vEEOT_, symObjAddr: 0x29F8, symBinAddr: 0x100004F60, symSize: 0x18 }
  - { offsetInCU: 0x1A630, offset: 0x1A630, size: 0x8, addend: 0x0, symName: __ZNKSt3__117__compressed_pairImNS_19__map_value_compareIiNS_12__value_typeIifEENS_4lessIiEELb1EEEE6secondB8ue170006Ev, symObjAddr: 0x2A10, symBinAddr: 0x100004F78, symSize: 0x24 }
  - { offsetInCU: 0x1A656, offset: 0x1A656, size: 0x8, addend: 0x0, symName: __ZNKSt3__122__compressed_pair_elemINS_19__map_value_compareIiNS_12__value_typeIifEENS_4lessIiEELb1EEELi1ELb1EE5__getB8ue170006Ev, symObjAddr: 0x2A34, symBinAddr: 0x100004F9C, symSize: 0x14 }
  - { offsetInCU: 0x1A67C, offset: 0x1A67C, size: 0x8, addend: 0x0, symName: __ZNKSt3__13mapIifNS_4lessIiEENS_9allocatorINS_4pairIKifEEEEE4cendB8ue170006Ev, symObjAddr: 0x2A48, symBinAddr: 0x100004FB0, symSize: 0x2C }
  - { offsetInCU: 0x1A6A2, offset: 0x1A6A2, size: 0x8, addend: 0x0, symName: __ZNSt3__13mapIifNS_4lessIiEENS_9allocatorINS_4pairIKifEEEEE6insertB8ue170006ENS_20__map_const_iteratorINS_21__tree_const_iteratorINS_12__value_typeIifEEPNS_11__tree_nodeISC_PvEElEEEERKS6_, symObjAddr: 0x2A74, symBinAddr: 0x100004FDC, symSize: 0x50 }
  - { offsetInCU: 0x1A6E6, offset: 0x1A6E6, size: 0x8, addend: 0x0, symName: __ZNSt3__120__map_const_iteratorINS_21__tree_const_iteratorINS_12__value_typeIifEEPNS_11__tree_nodeIS3_PvEElEEEC1B8ue170006ES8_, symObjAddr: 0x2AC4, symBinAddr: 0x10000502C, symSize: 0x34 }
  - { offsetInCU: 0x1A71F, offset: 0x1A71F, size: 0x8, addend: 0x0, symName: __ZNSt3__16__treeINS_12__value_typeIifEENS_19__map_value_compareIiS2_NS_4lessIiEELb1EEENS_9allocatorIS2_EEE15__insert_uniqueB8ue170006ENS_21__tree_const_iteratorIS2_PNS_11__tree_nodeIS2_PvEElEERKNS_4pairIKifEE, symObjAddr: 0x2AF8, symBinAddr: 0x100005060, symSize: 0x64 }
  - { offsetInCU: 0x1A763, offset: 0x1A763, size: 0x8, addend: 0x0, symName: __ZNSt3__114__map_iteratorINS_15__tree_iteratorINS_12__value_typeIifEEPNS_11__tree_nodeIS3_PvEElEEEC1B8ue170006ES8_, symObjAddr: 0x2B5C, symBinAddr: 0x1000050C4, symSize: 0x34 }
  - { offsetInCU: 0x1A79C, offset: 0x1A79C, size: 0x8, addend: 0x0, symName: __ZNSt3__16__treeINS_12__value_typeIifEENS_19__map_value_compareIiS2_NS_4lessIiEELb1EEENS_9allocatorIS2_EEE30__emplace_hint_unique_key_argsIiJRKNS_4pairIKifEEEEENSB_INS_15__tree_iteratorIS2_PNS_11__tree_nodeIS2_PvEElEEbEENS_21__tree_const_iteratorIS2_SK_lEERKT_DpOT0_, symObjAddr: 0x2B90, symBinAddr: 0x1000050F8, symSize: 0x104 }
  - { offsetInCU: 0x1A868, offset: 0x1A868, size: 0x8, addend: 0x0, symName: __ZNSt3__122__tree_key_value_typesINS_12__value_typeIifEEE9__get_keyB8ue170006IKNS_4pairIKifEEEENS_9enable_ifIXsr17__is_same_uncvrefIT_S7_EE5valueERS6_E4typeERSA_, symObjAddr: 0x2C94, symBinAddr: 0x1000051FC, symSize: 0x14 }
  - { offsetInCU: 0x1A895, offset: 0x1A895, size: 0x8, addend: 0x0, symName: __ZNSt3__16__treeINS_12__value_typeIifEENS_19__map_value_compareIiS2_NS_4lessIiEELb1EEENS_9allocatorIS2_EEE12__find_equalIiEERPNS_16__tree_node_baseIPvEENS_21__tree_const_iteratorIS2_PNS_11__tree_nodeIS2_SC_EElEERPNS_15__tree_end_nodeISE_EESF_RKT_, symObjAddr: 0x2CA8, symBinAddr: 0x100005210, symSize: 0x304 }
  - { offsetInCU: 0x1A93E, offset: 0x1A93E, size: 0x8, addend: 0x0, symName: __ZNSt3__16__treeINS_12__value_typeIifEENS_19__map_value_compareIiS2_NS_4lessIiEELb1EEENS_9allocatorIS2_EEE16__construct_nodeIJRKNS_4pairIKifEEEEENS_10unique_ptrINS_11__tree_nodeIS2_PvEENS_22__tree_node_destructorINS7_ISJ_EEEEEEDpOT_, symObjAddr: 0x2FAC, symBinAddr: 0x100005514, symSize: 0x118 }
  - { offsetInCU: 0x1A99F, offset: 0x1A99F, size: 0x8, addend: 0x0, symName: __ZNSt3__16__treeINS_12__value_typeIifEENS_19__map_value_compareIiS2_NS_4lessIiEELb1EEENS_9allocatorIS2_EEE16__insert_node_atEPNS_15__tree_end_nodeIPNS_16__tree_node_baseIPvEEEERSE_SE_, symObjAddr: 0x30C4, symBinAddr: 0x10000562C, symSize: 0xCC }
  - { offsetInCU: 0x1A9F4, offset: 0x1A9F4, size: 0x8, addend: 0x0, symName: __ZNKSt3__110unique_ptrINS_11__tree_nodeINS_12__value_typeIifEEPvEENS_22__tree_node_destructorINS_9allocatorIS5_EEEEE3getB8ue170006Ev, symObjAddr: 0x3190, symBinAddr: 0x1000056F8, symSize: 0x28 }
  - { offsetInCU: 0x1AA1A, offset: 0x1AA1A, size: 0x8, addend: 0x0, symName: __ZNSt3__110unique_ptrINS_11__tree_nodeINS_12__value_typeIifEEPvEENS_22__tree_node_destructorINS_9allocatorIS5_EEEEE7releaseB8ue170006Ev, symObjAddr: 0x31B8, symBinAddr: 0x100005720, symSize: 0x44 }
  - { offsetInCU: 0x1AA4F, offset: 0x1AA4F, size: 0x8, addend: 0x0, symName: __ZNSt3__110unique_ptrINS_11__tree_nodeINS_12__value_typeIifEEPvEENS_22__tree_node_destructorINS_9allocatorIS5_EEEEED1B8ue170006Ev, symObjAddr: 0x31FC, symBinAddr: 0x100005764, symSize: 0x2C }
  - { offsetInCU: 0x1AA79, offset: 0x1AA79, size: 0x8, addend: 0x0, symName: __ZNSt3__115__tree_iteratorINS_12__value_typeIifEEPNS_11__tree_nodeIS2_PvEElEC1B8ue170006ES6_, symObjAddr: 0x3228, symBinAddr: 0x100005790, symSize: 0x34 }
  - { offsetInCU: 0x1AAB2, offset: 0x1AAB2, size: 0x8, addend: 0x0, symName: __ZNSt3__14pairINS_15__tree_iteratorINS_12__value_typeIifEEPNS_11__tree_nodeIS3_PvEElEEbEC1B8ue170006ERKS8_RKb, symObjAddr: 0x325C, symBinAddr: 0x1000057C4, symSize: 0x3C }
  - { offsetInCU: 0x1AAF8, offset: 0x1AAF8, size: 0x8, addend: 0x0, symName: __ZNSt3__16__treeINS_12__value_typeIifEENS_19__map_value_compareIiS2_NS_4lessIiEELb1EEENS_9allocatorIS2_EEE3endB8ue170006Ev, symObjAddr: 0x32C8, symBinAddr: 0x100005830, symSize: 0x34 }
  - { offsetInCU: 0x1AB1E, offset: 0x1AB1E, size: 0x8, addend: 0x0, symName: __ZNSt3__121__tree_const_iteratorINS_12__value_typeIifEEPNS_11__tree_nodeIS2_PvEElEC1B8ue170006ENS_15__tree_iteratorIS2_S6_lEE, symObjAddr: 0x32FC, symBinAddr: 0x100005864, symSize: 0x34 }
  - { offsetInCU: 0x1AB57, offset: 0x1AB57, size: 0x8, addend: 0x0, symName: __ZNSt3__16__treeINS_12__value_typeIifEENS_19__map_value_compareIiS2_NS_4lessIiEELb1EEENS_9allocatorIS2_EEE10value_compB8ue170006Ev, symObjAddr: 0x3330, symBinAddr: 0x100005898, symSize: 0x28 }
  - { offsetInCU: 0x1AB7D, offset: 0x1AB7D, size: 0x8, addend: 0x0, symName: __ZNKSt3__119__map_value_compareIiNS_12__value_typeIifEENS_4lessIiEELb1EEclB8ue170006ERKiRKS2_, symObjAddr: 0x3358, symBinAddr: 0x1000058C0, symSize: 0x50 }
  - { offsetInCU: 0x1ABC1, offset: 0x1ABC1, size: 0x8, addend: 0x0, symName: __ZNKSt3__121__tree_const_iteratorINS_12__value_typeIifEEPNS_11__tree_nodeIS2_PvEElEdeB8ue170006Ev, symObjAddr: 0x33A8, symBinAddr: 0x100005910, symSize: 0x28 }
  - { offsetInCU: 0x1ABE7, offset: 0x1ABE7, size: 0x8, addend: 0x0, symName: __ZNSt3__16__treeINS_12__value_typeIifEENS_19__map_value_compareIiS2_NS_4lessIiEELb1EEENS_9allocatorIS2_EEE5beginB8ue170006Ev, symObjAddr: 0x33D0, symBinAddr: 0x100005938, symSize: 0x34 }
  - { offsetInCU: 0x1AC0D, offset: 0x1AC0D, size: 0x8, addend: 0x0, symName: __ZNKSt3__119__map_value_compareIiNS_12__value_typeIifEENS_4lessIiEELb1EEclB8ue170006ERKS2_RKi, symObjAddr: 0x3404, symBinAddr: 0x10000596C, symSize: 0x48 }
  - { offsetInCU: 0x1AC51, offset: 0x1AC51, size: 0x8, addend: 0x0, symName: __ZNSt3__121__tree_const_iteratorINS_12__value_typeIifEEPNS_11__tree_nodeIS2_PvEElEmmB8ue170006Ev, symObjAddr: 0x344C, symBinAddr: 0x1000059B4, symSize: 0x38 }
  - { offsetInCU: 0x1AC77, offset: 0x1AC77, size: 0x8, addend: 0x0, symName: __ZNSt3__16__treeINS_12__value_typeIifEENS_19__map_value_compareIiS2_NS_4lessIiEELb1EEENS_9allocatorIS2_EEE12__find_equalIiEERPNS_16__tree_node_baseIPvEERPNS_15__tree_end_nodeISE_EERKT_, symObjAddr: 0x3484, symBinAddr: 0x1000059EC, symSize: 0x184 }
  - { offsetInCU: 0x1ACE4, offset: 0x1ACE4, size: 0x8, addend: 0x0, symName: __ZNKSt3__121__tree_const_iteratorINS_12__value_typeIifEEPNS_11__tree_nodeIS2_PvEElE8__get_npB8ue170006Ev, symObjAddr: 0x3644, symBinAddr: 0x100005BAC, symSize: 0x18 }
  - { offsetInCU: 0x1AD0A, offset: 0x1AD0A, size: 0x8, addend: 0x0, symName: __ZNSt3__115__tree_iteratorINS_12__value_typeIifEEPNS_11__tree_nodeIS2_PvEElEC1B8ue170006EPNS_15__tree_end_nodeIPNS_16__tree_node_baseIS4_EEEE, symObjAddr: 0x365C, symBinAddr: 0x100005BC4, symSize: 0x34 }
  - { offsetInCU: 0x1AD43, offset: 0x1AD43, size: 0x8, addend: 0x0, symName: __ZNSt3__115__tree_iteratorINS_12__value_typeIifEEPNS_11__tree_nodeIS2_PvEElEC2B8ue170006EPNS_15__tree_end_nodeIPNS_16__tree_node_baseIS4_EEEE, symObjAddr: 0x3690, symBinAddr: 0x100005BF8, symSize: 0x20 }
  - { offsetInCU: 0x1AD7C, offset: 0x1AD7C, size: 0x8, addend: 0x0, symName: __ZNSt3__121__tree_const_iteratorINS_12__value_typeIifEEPNS_11__tree_nodeIS2_PvEElEC2B8ue170006ENS_15__tree_iteratorIS2_S6_lEE, symObjAddr: 0x36B0, symBinAddr: 0x100005C18, symSize: 0x20 }
  - { offsetInCU: 0x1ADB5, offset: 0x1ADB5, size: 0x8, addend: 0x0, symName: __ZNSt3__117__compressed_pairImNS_19__map_value_compareIiNS_12__value_typeIifEENS_4lessIiEELb1EEEE6secondB8ue170006Ev, symObjAddr: 0x36D0, symBinAddr: 0x100005C38, symSize: 0x24 }
  - { offsetInCU: 0x1ADDB, offset: 0x1ADDB, size: 0x8, addend: 0x0, symName: __ZNSt3__122__compressed_pair_elemINS_19__map_value_compareIiNS_12__value_typeIifEENS_4lessIiEELb1EEELi1ELb1EE5__getB8ue170006Ev, symObjAddr: 0x36F4, symBinAddr: 0x100005C5C, symSize: 0x14 }
  - { offsetInCU: 0x1AE01, offset: 0x1AE01, size: 0x8, addend: 0x0, symName: __ZNKSt3__14lessIiEclB8ue170006ERKiS3_, symObjAddr: 0x3708, symBinAddr: 0x100005C70, symSize: 0x34 }
  - { offsetInCU: 0x1AE45, offset: 0x1AE45, size: 0x8, addend: 0x0, symName: __ZNKSt3__112__value_typeIifE11__get_valueB8ue170006Ev, symObjAddr: 0x373C, symBinAddr: 0x100005CA4, symSize: 0x14 }
  - { offsetInCU: 0x1AE6B, offset: 0x1AE6B, size: 0x8, addend: 0x0, symName: __ZNKSt3__116__tree_node_baseIPvE15__parent_unsafeB8ue170006Ev, symObjAddr: 0x3874, symBinAddr: 0x100005DDC, symSize: 0x18 }
  - { offsetInCU: 0x1AE91, offset: 0x1AE91, size: 0x8, addend: 0x0, symName: __ZNKSt3__16__treeINS_12__value_typeIifEENS_19__map_value_compareIiS2_NS_4lessIiEELb1EEENS_9allocatorIS2_EEE6__rootB8ue170006Ev, symObjAddr: 0x388C, symBinAddr: 0x100005DF4, symSize: 0x28 }
  - { offsetInCU: 0x1AEB7, offset: 0x1AEB7, size: 0x8, addend: 0x0, symName: __ZNKSt3__16__treeINS_12__value_typeIifEENS_19__map_value_compareIiS2_NS_4lessIiEELb1EEENS_9allocatorIS2_EEE10__root_ptrB8ue170006Ev, symObjAddr: 0x38B4, symBinAddr: 0x100005E1C, symSize: 0x24 }
  - { offsetInCU: 0x1AEDD, offset: 0x1AEDD, size: 0x8, addend: 0x0, symName: __ZNKSt3__16__treeINS_12__value_typeIifEENS_19__map_value_compareIiS2_NS_4lessIiEELb1EEENS_9allocatorIS2_EEE10__end_nodeB8ue170006Ev, symObjAddr: 0x38D8, symBinAddr: 0x100005E40, symSize: 0x2C }
  - { offsetInCU: 0x1AF03, offset: 0x1AF03, size: 0x8, addend: 0x0, symName: __ZNKSt3__117__compressed_pairINS_15__tree_end_nodeIPNS_16__tree_node_baseIPvEEEENS_9allocatorINS_11__tree_nodeINS_12__value_typeIifEES3_EEEEE5firstB8ue170006Ev, symObjAddr: 0x3904, symBinAddr: 0x100005E6C, symSize: 0x24 }
  - { offsetInCU: 0x1AF29, offset: 0x1AF29, size: 0x8, addend: 0x0, symName: __ZNKSt3__122__compressed_pair_elemINS_15__tree_end_nodeIPNS_16__tree_node_baseIPvEEEELi0ELb0EE5__getB8ue170006Ev, symObjAddr: 0x3928, symBinAddr: 0x100005E90, symSize: 0x14 }
  - { offsetInCU: 0x1AF4F, offset: 0x1AF4F, size: 0x8, addend: 0x0, symName: __ZNSt3__121__tree_const_iteratorINS_12__value_typeIifEEPNS_11__tree_nodeIS2_PvEElEppB8ue170006Ev, symObjAddr: 0x3A2C, symBinAddr: 0x100005F94, symSize: 0x38 }
  - { offsetInCU: 0x1AF75, offset: 0x1AF75, size: 0x8, addend: 0x0, symName: __ZNSt3__16__treeINS_12__value_typeIifEENS_19__map_value_compareIiS2_NS_4lessIiEELb1EEENS_9allocatorIS2_EEE12__node_allocB8ue170006Ev, symObjAddr: 0x3B24, symBinAddr: 0x10000608C, symSize: 0x28 }
  - { offsetInCU: 0x1AF9B, offset: 0x1AF9B, size: 0x8, addend: 0x0, symName: __ZNSt3__116allocator_traitsINS_9allocatorINS_11__tree_nodeINS_12__value_typeIifEEPvEEEEE8allocateB8ue170006ERS7_m, symObjAddr: 0x3B4C, symBinAddr: 0x1000060B4, symSize: 0x2C }
  - { offsetInCU: 0x1AFCE, offset: 0x1AFCE, size: 0x8, addend: 0x0, symName: __ZNSt3__122__tree_node_destructorINS_9allocatorINS_11__tree_nodeINS_12__value_typeIifEEPvEEEEEC1B8ue170006ERS7_b, symObjAddr: 0x3B78, symBinAddr: 0x1000060E0, symSize: 0x48 }
  - { offsetInCU: 0x1B01C, offset: 0x1B01C, size: 0x8, addend: 0x0, symName: __ZNSt3__110unique_ptrINS_11__tree_nodeINS_12__value_typeIifEEPvEENS_22__tree_node_destructorINS_9allocatorIS5_EEEEEC1B8ue170006ILb1EvEEPS5_NS_16__dependent_typeINS_27__unique_ptr_deleter_sfinaeIS9_EEXT_EE20__good_rval_ref_typeE, symObjAddr: 0x3BC0, symBinAddr: 0x100006128, symSize: 0x3C }
  - { offsetInCU: 0x1B06D, offset: 0x1B06D, size: 0x8, addend: 0x0, symName: __ZNSt3__116allocator_traitsINS_9allocatorINS_11__tree_nodeINS_12__value_typeIifEEPvEEEEE9constructB8ue170006INS_4pairIKifEEJRKSC_EvEEvRS7_PT_DpOT0_, symObjAddr: 0x3BFC, symBinAddr: 0x100006164, symSize: 0x34 }
  - { offsetInCU: 0x1B0C4, offset: 0x1B0C4, size: 0x8, addend: 0x0, symName: __ZNSt3__122__tree_key_value_typesINS_12__value_typeIifEEE9__get_ptrB8ue170006ERS2_, symObjAddr: 0x3C30, symBinAddr: 0x100006198, symSize: 0x24 }
  - { offsetInCU: 0x1B0E8, offset: 0x1B0E8, size: 0x8, addend: 0x0, symName: __ZNKSt3__110unique_ptrINS_11__tree_nodeINS_12__value_typeIifEEPvEENS_22__tree_node_destructorINS_9allocatorIS5_EEEEEptB8ue170006Ev, symObjAddr: 0x3C54, symBinAddr: 0x1000061BC, symSize: 0x28 }
  - { offsetInCU: 0x1B10E, offset: 0x1B10E, size: 0x8, addend: 0x0, symName: __ZNSt3__110unique_ptrINS_11__tree_nodeINS_12__value_typeIifEEPvEENS_22__tree_node_destructorINS_9allocatorIS5_EEEEE11get_deleterB8ue170006Ev, symObjAddr: 0x3C7C, symBinAddr: 0x1000061E4, symSize: 0x24 }
  - { offsetInCU: 0x1B134, offset: 0x1B134, size: 0x8, addend: 0x0, symName: __ZNSt3__117__compressed_pairINS_15__tree_end_nodeIPNS_16__tree_node_baseIPvEEEENS_9allocatorINS_11__tree_nodeINS_12__value_typeIifEES3_EEEEE6secondB8ue170006Ev, symObjAddr: 0x3CA0, symBinAddr: 0x100006208, symSize: 0x24 }
  - { offsetInCU: 0x1B15A, offset: 0x1B15A, size: 0x8, addend: 0x0, symName: __ZNSt3__122__compressed_pair_elemINS_9allocatorINS_11__tree_nodeINS_12__value_typeIifEEPvEEEELi1ELb1EE5__getB8ue170006Ev, symObjAddr: 0x3CC4, symBinAddr: 0x10000622C, symSize: 0x14 }
  - { offsetInCU: 0x1B180, offset: 0x1B180, size: 0x8, addend: 0x0, symName: __ZNSt3__19allocatorINS_11__tree_nodeINS_12__value_typeIifEEPvEEE8allocateB8ue170006Em, symObjAddr: 0x3CD8, symBinAddr: 0x100006240, symSize: 0x8C }
  - { offsetInCU: 0x1B1B4, offset: 0x1B1B4, size: 0x8, addend: 0x0, symName: __ZNSt3__116allocator_traitsINS_9allocatorINS_11__tree_nodeINS_12__value_typeIifEEPvEEEEE8max_sizeB8ue170006IS7_vEEmRKS7_, symObjAddr: 0x3D64, symBinAddr: 0x1000062CC, symSize: 0x24 }
  - { offsetInCU: 0x1B1E2, offset: 0x1B1E2, size: 0x8, addend: 0x0, symName: __ZNKSt3__19allocatorINS_11__tree_nodeINS_12__value_typeIifEEPvEEE8max_sizeB8ue170006Ev, symObjAddr: 0x3DF0, symBinAddr: 0x100006358, symSize: 0x18 }
  - { offsetInCU: 0x1B208, offset: 0x1B208, size: 0x8, addend: 0x0, symName: __ZNSt3__122__tree_node_destructorINS_9allocatorINS_11__tree_nodeINS_12__value_typeIifEEPvEEEEEC2B8ue170006ERS7_b, symObjAddr: 0x3E2C, symBinAddr: 0x100006394, symSize: 0x38 }
  - { offsetInCU: 0x1B250, offset: 0x1B250, size: 0x8, addend: 0x0, symName: __ZNSt3__110unique_ptrINS_11__tree_nodeINS_12__value_typeIifEEPvEENS_22__tree_node_destructorINS_9allocatorIS5_EEEEEC2B8ue170006ILb1EvEEPS5_NS_16__dependent_typeINS_27__unique_ptr_deleter_sfinaeIS9_EEXT_EE20__good_rval_ref_typeE, symObjAddr: 0x3E64, symBinAddr: 0x1000063CC, symSize: 0x5C }
  - { offsetInCU: 0x1B2A1, offset: 0x1B2A1, size: 0x8, addend: 0x0, symName: __ZNSt3__117__compressed_pairIPNS_11__tree_nodeINS_12__value_typeIifEEPvEENS_22__tree_node_destructorINS_9allocatorIS5_EEEEEC1B8ue170006IRS6_SA_EEOT_OT0_, symObjAddr: 0x3EC0, symBinAddr: 0x100006428, symSize: 0x3C }
  - { offsetInCU: 0x1B2F9, offset: 0x1B2F9, size: 0x8, addend: 0x0, symName: __ZNSt3__117__compressed_pairIPNS_11__tree_nodeINS_12__value_typeIifEEPvEENS_22__tree_node_destructorINS_9allocatorIS5_EEEEEC2B8ue170006IRS6_SA_EEOT_OT0_, symObjAddr: 0x3EFC, symBinAddr: 0x100006464, symSize: 0x48 }
  - { offsetInCU: 0x1B351, offset: 0x1B351, size: 0x8, addend: 0x0, symName: __ZNSt3__122__compressed_pair_elemIPNS_11__tree_nodeINS_12__value_typeIifEEPvEELi0ELb0EEC2B8ue170006IRS6_vEEOT_, symObjAddr: 0x3F44, symBinAddr: 0x1000064AC, symSize: 0x24 }
  - { offsetInCU: 0x1B393, offset: 0x1B393, size: 0x8, addend: 0x0, symName: __ZNSt3__122__compressed_pair_elemINS_22__tree_node_destructorINS_9allocatorINS_11__tree_nodeINS_12__value_typeIifEEPvEEEEEELi1ELb0EEC2B8ue170006IS9_vEEOT_, symObjAddr: 0x3F68, symBinAddr: 0x1000064D0, symSize: 0x24 }
  - { offsetInCU: 0x1B3D5, offset: 0x1B3D5, size: 0x8, addend: 0x0, symName: __ZNSt3__19allocatorINS_11__tree_nodeINS_12__value_typeIifEEPvEEE9constructB8ue170006INS_4pairIKifEEJRKSA_EEEvPT_DpOT0_, symObjAddr: 0x3F8C, symBinAddr: 0x1000064F4, symSize: 0x28 }
  - { offsetInCU: 0x1B42B, offset: 0x1B42B, size: 0x8, addend: 0x0, symName: __ZNSt3__112__value_typeIifE11__get_valueB8ue170006Ev, symObjAddr: 0x3FB4, symBinAddr: 0x10000651C, symSize: 0x14 }
  - { offsetInCU: 0x1B451, offset: 0x1B451, size: 0x8, addend: 0x0, symName: __ZNKSt3__117__compressed_pairIPNS_11__tree_nodeINS_12__value_typeIifEEPvEENS_22__tree_node_destructorINS_9allocatorIS5_EEEEE5firstB8ue170006Ev, symObjAddr: 0x3FC8, symBinAddr: 0x100006530, symSize: 0x24 }
  - { offsetInCU: 0x1B477, offset: 0x1B477, size: 0x8, addend: 0x0, symName: __ZNKSt3__122__compressed_pair_elemIPNS_11__tree_nodeINS_12__value_typeIifEEPvEELi0ELb0EE5__getB8ue170006Ev, symObjAddr: 0x3FEC, symBinAddr: 0x100006554, symSize: 0x14 }
  - { offsetInCU: 0x1B49D, offset: 0x1B49D, size: 0x8, addend: 0x0, symName: __ZNSt3__117__compressed_pairIPNS_11__tree_nodeINS_12__value_typeIifEEPvEENS_22__tree_node_destructorINS_9allocatorIS5_EEEEE6secondB8ue170006Ev, symObjAddr: 0x4000, symBinAddr: 0x100006568, symSize: 0x28 }
  - { offsetInCU: 0x1B4C3, offset: 0x1B4C3, size: 0x8, addend: 0x0, symName: __ZNSt3__122__compressed_pair_elemINS_22__tree_node_destructorINS_9allocatorINS_11__tree_nodeINS_12__value_typeIifEEPvEEEEEELi1ELb0EE5__getB8ue170006Ev, symObjAddr: 0x4028, symBinAddr: 0x100006590, symSize: 0x14 }
  - { offsetInCU: 0x1B4E9, offset: 0x1B4E9, size: 0x8, addend: 0x0, symName: __ZNSt3__16__treeINS_12__value_typeIifEENS_19__map_value_compareIiS2_NS_4lessIiEELb1EEENS_9allocatorIS2_EEE4sizeB8ue170006Ev, symObjAddr: 0x42B8, symBinAddr: 0x100006820, symSize: 0x28 }
  - { offsetInCU: 0x1B50F, offset: 0x1B50F, size: 0x8, addend: 0x0, symName: __ZNSt3__116__tree_node_baseIPvE12__set_parentB8ue170006EPS2_, symObjAddr: 0x4498, symBinAddr: 0x100006A00, symSize: 0x20 }
  - { offsetInCU: 0x1B544, offset: 0x1B544, size: 0x8, addend: 0x0, symName: __ZNSt3__117__compressed_pairImNS_19__map_value_compareIiNS_12__value_typeIifEENS_4lessIiEELb1EEEE5firstB8ue170006Ev, symObjAddr: 0x44B8, symBinAddr: 0x100006A20, symSize: 0x24 }
  - { offsetInCU: 0x1B56A, offset: 0x1B56A, size: 0x8, addend: 0x0, symName: __ZNSt3__122__compressed_pair_elemImLi0ELb0EE5__getB8ue170006Ev, symObjAddr: 0x44DC, symBinAddr: 0x100006A44, symSize: 0x14 }
  - { offsetInCU: 0x1B590, offset: 0x1B590, size: 0x8, addend: 0x0, symName: __ZNSt3__117__compressed_pairIPNS_11__tree_nodeINS_12__value_typeIifEEPvEENS_22__tree_node_destructorINS_9allocatorIS5_EEEEE5firstB8ue170006Ev, symObjAddr: 0x44F0, symBinAddr: 0x100006A58, symSize: 0x24 }
  - { offsetInCU: 0x1B5B6, offset: 0x1B5B6, size: 0x8, addend: 0x0, symName: __ZNSt3__122__compressed_pair_elemIPNS_11__tree_nodeINS_12__value_typeIifEEPvEELi0ELb0EE5__getB8ue170006Ev, symObjAddr: 0x4514, symBinAddr: 0x100006A7C, symSize: 0x14 }
  - { offsetInCU: 0x1B5DC, offset: 0x1B5DC, size: 0x8, addend: 0x0, symName: __ZNSt3__110unique_ptrINS_11__tree_nodeINS_12__value_typeIifEEPvEENS_22__tree_node_destructorINS_9allocatorIS5_EEEEED2B8ue170006Ev, symObjAddr: 0x4528, symBinAddr: 0x100006A90, symSize: 0x30 }
  - { offsetInCU: 0x1B606, offset: 0x1B606, size: 0x8, addend: 0x0, symName: __ZNSt3__110unique_ptrINS_11__tree_nodeINS_12__value_typeIifEEPvEENS_22__tree_node_destructorINS_9allocatorIS5_EEEEE5resetB8ue170006EPS5_, symObjAddr: 0x4558, symBinAddr: 0x100006AC0, symSize: 0x78 }
  - { offsetInCU: 0x1B64A, offset: 0x1B64A, size: 0x8, addend: 0x0, symName: __ZNSt3__122__tree_node_destructorINS_9allocatorINS_11__tree_nodeINS_12__value_typeIifEEPvEEEEEclB8ue170006EPS6_, symObjAddr: 0x45D0, symBinAddr: 0x100006B38, symSize: 0xAC }
  - { offsetInCU: 0x1B67F, offset: 0x1B67F, size: 0x8, addend: 0x0, symName: __ZNSt3__116allocator_traitsINS_9allocatorINS_11__tree_nodeINS_12__value_typeIifEEPvEEEEE7destroyB8ue170006INS_4pairIKifEEvvEEvRS7_PT_, symObjAddr: 0x467C, symBinAddr: 0x100006BE4, symSize: 0x14 }
  - { offsetInCU: 0x1B6B9, offset: 0x1B6B9, size: 0x8, addend: 0x0, symName: __ZNSt3__116allocator_traitsINS_9allocatorINS_11__tree_nodeINS_12__value_typeIifEEPvEEEEE10deallocateB8ue170006ERS7_PS6_m, symObjAddr: 0x4690, symBinAddr: 0x100006BF8, symSize: 0x34 }
  - { offsetInCU: 0x1B6FB, offset: 0x1B6FB, size: 0x8, addend: 0x0, symName: __ZNSt3__19allocatorINS_11__tree_nodeINS_12__value_typeIifEEPvEEE10deallocateB8ue170006EPS5_m, symObjAddr: 0x46C4, symBinAddr: 0x100006C2C, symSize: 0x74 }
  - { offsetInCU: 0x1B73D, offset: 0x1B73D, size: 0x8, addend: 0x0, symName: __ZNSt3__115__tree_iteratorINS_12__value_typeIifEEPNS_11__tree_nodeIS2_PvEElEC2B8ue170006ES6_, symObjAddr: 0x47B4, symBinAddr: 0x100006D1C, symSize: 0x20 }
  - { offsetInCU: 0x1B776, offset: 0x1B776, size: 0x8, addend: 0x0, symName: __ZNSt3__14pairINS_15__tree_iteratorINS_12__value_typeIifEEPNS_11__tree_nodeIS3_PvEElEEbEC2B8ue170006ERKS8_RKb, symObjAddr: 0x47D4, symBinAddr: 0x100006D3C, symSize: 0x38 }
  - { offsetInCU: 0x1B7BC, offset: 0x1B7BC, size: 0x8, addend: 0x0, symName: __ZNSt3__114__map_iteratorINS_15__tree_iteratorINS_12__value_typeIifEEPNS_11__tree_nodeIS3_PvEElEEEC2B8ue170006ES8_, symObjAddr: 0x480C, symBinAddr: 0x100006D74, symSize: 0x20 }
  - { offsetInCU: 0x1B7F5, offset: 0x1B7F5, size: 0x8, addend: 0x0, symName: __ZNSt3__120__map_const_iteratorINS_21__tree_const_iteratorINS_12__value_typeIifEEPNS_11__tree_nodeIS3_PvEElEEEC2B8ue170006ES8_, symObjAddr: 0x482C, symBinAddr: 0x100006D94, symSize: 0x20 }
  - { offsetInCU: 0x1B82E, offset: 0x1B82E, size: 0x8, addend: 0x0, symName: __ZNSt3__16__treeINS_12__value_typeIifEENS_19__map_value_compareIiS2_NS_4lessIiEELb1EEENS_9allocatorIS2_EEED2Ev, symObjAddr: 0x484C, symBinAddr: 0x100006DB4, symSize: 0x38 }
  - { offsetInCU: 0x1B85A, offset: 0x1B85A, size: 0x8, addend: 0x0, symName: __ZNSt3__16__treeINS_12__value_typeIifEENS_19__map_value_compareIiS2_NS_4lessIiEELb1EEENS_9allocatorIS2_EEE7destroyEPNS_11__tree_nodeIS2_PvEE, symObjAddr: 0x4884, symBinAddr: 0x100006DEC, symSize: 0xBC }
  - { offsetInCU: 0x1B8AE, offset: 0x1B8AE, size: 0x8, addend: 0x0, symName: __ZN4NodoD2Ev, symObjAddr: 0x4940, symBinAddr: 0x100006EA8, symSize: 0x30 }
  - { offsetInCU: 0x1B8DA, offset: 0x1B8DA, size: 0x8, addend: 0x0, symName: __ZNSt3__16vectorI4NodoNS_9allocatorIS1_EEEC1ERKS4_, symObjAddr: 0x4970, symBinAddr: 0x100006ED8, symSize: 0x34 }
  - { offsetInCU: 0x1B915, offset: 0x1B915, size: 0x8, addend: 0x0, symName: __ZNSt3__16vectorI4NodoNS_9allocatorIS1_EEEC2ERKS4_, symObjAddr: 0x49A4, symBinAddr: 0x100006F0C, symSize: 0x94 }
  - { offsetInCU: 0x1B95A, offset: 0x1B95A, size: 0x8, addend: 0x0, symName: __ZNSt3__116allocator_traitsINS_9allocatorI4NodoEEE37select_on_container_copy_constructionB8ue170006IS3_vvEES3_RKS3_, symObjAddr: 0x4A38, symBinAddr: 0x100006FA0, symSize: 0x10 }
  - { offsetInCU: 0x1B989, offset: 0x1B989, size: 0x8, addend: 0x0, symName: __ZNKSt3__16vectorI4NodoNS_9allocatorIS1_EEE7__allocB8ue170006Ev, symObjAddr: 0x4A48, symBinAddr: 0x100006FB0, symSize: 0x28 }
  - { offsetInCU: 0x1B9B5, offset: 0x1B9B5, size: 0x8, addend: 0x0, symName: __ZNSt3__117__compressed_pairIP4NodoNS_9allocatorIS1_EEEC1B8ue170006IDnS4_EEOT_OT0_, symObjAddr: 0x4A70, symBinAddr: 0x100006FD8, symSize: 0x3C }
  - { offsetInCU: 0x1BA0D, offset: 0x1BA0D, size: 0x8, addend: 0x0, symName: __ZNSt3__16vectorI4NodoNS_9allocatorIS1_EEE16__init_with_sizeB8ue170006IPS1_S6_EEvT_T0_m, symObjAddr: 0x4AAC, symBinAddr: 0x100007014, symSize: 0xC0 }
  - { offsetInCU: 0x1BA81, offset: 0x1BA81, size: 0x8, addend: 0x0, symName: __ZNKSt3__117__compressed_pairIP4NodoNS_9allocatorIS1_EEE6secondB8ue170006Ev, symObjAddr: 0x4B6C, symBinAddr: 0x1000070D4, symSize: 0x24 }
  - { offsetInCU: 0x1BAA7, offset: 0x1BAA7, size: 0x8, addend: 0x0, symName: __ZNKSt3__122__compressed_pair_elemINS_9allocatorI4NodoEELi1ELb1EE5__getB8ue170006Ev, symObjAddr: 0x4B90, symBinAddr: 0x1000070F8, symSize: 0x14 }
  - { offsetInCU: 0x1BACD, offset: 0x1BACD, size: 0x8, addend: 0x0, symName: __ZNSt3__117__compressed_pairIP4NodoNS_9allocatorIS1_EEEC2B8ue170006IDnS4_EEOT_OT0_, symObjAddr: 0x4BA4, symBinAddr: 0x10000710C, symSize: 0x44 }
  - { offsetInCU: 0x1BB25, offset: 0x1BB25, size: 0x8, addend: 0x0, symName: __ZNSt3__122__compressed_pair_elemINS_9allocatorI4NodoEELi1ELb1EEC2B8ue170006IS3_vEEOT_, symObjAddr: 0x4BE8, symBinAddr: 0x100007150, symSize: 0x18 }
  - { offsetInCU: 0x1BB67, offset: 0x1BB67, size: 0x8, addend: 0x0, symName: __ZNSt3__16vectorI4NodoNS_9allocatorIS1_EEE16__destroy_vectorC1B8ue170006ERS4_, symObjAddr: 0x4C40, symBinAddr: 0x1000071A8, symSize: 0x34 }
  - { offsetInCU: 0x1BBA0, offset: 0x1BBA0, size: 0x8, addend: 0x0, symName: __ZNSt3__16vectorI4NodoNS_9allocatorIS1_EEE11__vallocateB8ue170006Em, symObjAddr: 0x4C74, symBinAddr: 0x1000071DC, symSize: 0xB4 }
  - { offsetInCU: 0x1BBE4, offset: 0x1BBE4, size: 0x8, addend: 0x0, symName: __ZNSt3__16vectorI4NodoNS_9allocatorIS1_EEE18__construct_at_endIPS1_S6_EEvT_T0_m, symObjAddr: 0x4D28, symBinAddr: 0x100007290, symSize: 0x94 }
  - { offsetInCU: 0x1BC5A, offset: 0x1BC5A, size: 0x8, addend: 0x0, symName: __ZNSt3__128__exception_guard_exceptionsINS_6vectorI4NodoNS_9allocatorIS2_EEE16__destroy_vectorEE10__completeB8ue170006Ev, symObjAddr: 0x4DBC, symBinAddr: 0x100007324, symSize: 0x1C }
  - { offsetInCU: 0x1BC80, offset: 0x1BC80, size: 0x8, addend: 0x0, symName: __ZNSt3__128__exception_guard_exceptionsINS_6vectorI4NodoNS_9allocatorIS2_EEE16__destroy_vectorEED1B8ue170006Ev, symObjAddr: 0x4DD8, symBinAddr: 0x100007340, symSize: 0x2C }
  - { offsetInCU: 0x1BCAA, offset: 0x1BCAA, size: 0x8, addend: 0x0, symName: __ZNSt3__128__exception_guard_exceptionsINS_6vectorI4NodoNS_9allocatorIS2_EEE16__destroy_vectorEEC1B8ue170006ES6_, symObjAddr: 0x4E04, symBinAddr: 0x10000736C, symSize: 0x34 }
  - { offsetInCU: 0x1BCE2, offset: 0x1BCE2, size: 0x8, addend: 0x0, symName: __ZNSt3__128__exception_guard_exceptionsINS_6vectorI4NodoNS_9allocatorIS2_EEE16__destroy_vectorEEC2B8ue170006ES6_, symObjAddr: 0x4E38, symBinAddr: 0x1000073A0, symSize: 0x24 }
  - { offsetInCU: 0x1BD1A, offset: 0x1BD1A, size: 0x8, addend: 0x0, symName: __ZNSt3__16vectorI4NodoNS_9allocatorIS1_EEE16__destroy_vectorC2B8ue170006ERS4_, symObjAddr: 0x4E5C, symBinAddr: 0x1000073C4, symSize: 0x20 }
  - { offsetInCU: 0x1BD53, offset: 0x1BD53, size: 0x8, addend: 0x0, symName: __ZNKSt3__16vectorI4NodoNS_9allocatorIS1_EEE8max_sizeEv, symObjAddr: 0x4E7C, symBinAddr: 0x1000073E4, symSize: 0x74 }
  - { offsetInCU: 0x1BD7B, offset: 0x1BD7B, size: 0x8, addend: 0x0, symName: __ZNKSt3__16vectorI4NodoNS_9allocatorIS1_EEE20__throw_length_errorB8ue170006Ev, symObjAddr: 0x4EF0, symBinAddr: 0x100007458, symSize: 0x1C }
  - { offsetInCU: 0x1BDA1, offset: 0x1BDA1, size: 0x8, addend: 0x0, symName: __ZNSt3__16vectorI4NodoNS_9allocatorIS1_EEE7__allocB8ue170006Ev, symObjAddr: 0x4F4C, symBinAddr: 0x1000074B4, symSize: 0x28 }
  - { offsetInCU: 0x1BDC7, offset: 0x1BDC7, size: 0x8, addend: 0x0, symName: __ZNSt3__16vectorI4NodoNS_9allocatorIS1_EEE9__end_capB8ue170006Ev, symObjAddr: 0x4F74, symBinAddr: 0x1000074DC, symSize: 0x28 }
  - { offsetInCU: 0x1BDED, offset: 0x1BDED, size: 0x8, addend: 0x0, symName: __ZNKSt3__16vectorI4NodoNS_9allocatorIS1_EEE14__annotate_newB8ue170006Em, symObjAddr: 0x4F9C, symBinAddr: 0x100007504, symSize: 0xC8 }
  - { offsetInCU: 0x1BE22, offset: 0x1BE22, size: 0x8, addend: 0x0, symName: __ZNSt3__116allocator_traitsINS_9allocatorI4NodoEEE8max_sizeB8ue170006IS3_vEEmRKS3_, symObjAddr: 0x5090, symBinAddr: 0x1000075F8, symSize: 0x24 }
  - { offsetInCU: 0x1BE50, offset: 0x1BE50, size: 0x8, addend: 0x0, symName: __ZNSt3__114numeric_limitsIlE3maxB8ue170006Ev, symObjAddr: 0x50B4, symBinAddr: 0x10000761C, symSize: 0x14 }
  - { offsetInCU: 0x1BE6E, offset: 0x1BE6E, size: 0x8, addend: 0x0, symName: __ZNKSt3__16__lessIvvEclB8ue170006ImmEEbRKT_RKT0_, symObjAddr: 0x511C, symBinAddr: 0x100007684, symSize: 0x34 }
  - { offsetInCU: 0x1BEC2, offset: 0x1BEC2, size: 0x8, addend: 0x0, symName: __ZNKSt3__19allocatorI4NodoE8max_sizeB8ue170006Ev, symObjAddr: 0x5150, symBinAddr: 0x1000076B8, symSize: 0x18 }
  - { offsetInCU: 0x1BEE8, offset: 0x1BEE8, size: 0x8, addend: 0x0, symName: __ZNSt3__123__libcpp_numeric_limitsIlLb1EE3maxB8ue170006Ev, symObjAddr: 0x5168, symBinAddr: 0x1000076D0, symSize: 0x8 }
  - { offsetInCU: 0x1BEFC, offset: 0x1BEFC, size: 0x8, addend: 0x0, symName: __ZNSt12length_errorC1B8ue170006EPKc, symObjAddr: 0x51D4, symBinAddr: 0x10000773C, symSize: 0x34 }
  - { offsetInCU: 0x1BF34, offset: 0x1BF34, size: 0x8, addend: 0x0, symName: __ZNSt12length_errorC2B8ue170006EPKc, symObjAddr: 0x5208, symBinAddr: 0x100007770, symSize: 0x4C }
  - { offsetInCU: 0x1BF6C, offset: 0x1BF6C, size: 0x8, addend: 0x0, symName: __ZNSt3__19allocatorI4NodoE8allocateB8ue170006Em, symObjAddr: 0x5254, symBinAddr: 0x1000077BC, symSize: 0x8C }
  - { offsetInCU: 0x1BFA0, offset: 0x1BFA0, size: 0x8, addend: 0x0, symName: __ZNSt3__117__compressed_pairIP4NodoNS_9allocatorIS1_EEE6secondB8ue170006Ev, symObjAddr: 0x52E0, symBinAddr: 0x100007848, symSize: 0x24 }
  - { offsetInCU: 0x1BFC6, offset: 0x1BFC6, size: 0x8, addend: 0x0, symName: __ZNSt3__122__compressed_pair_elemINS_9allocatorI4NodoEELi1ELb1EE5__getB8ue170006Ev, symObjAddr: 0x5304, symBinAddr: 0x10000786C, symSize: 0x14 }
  - { offsetInCU: 0x1BFEC, offset: 0x1BFEC, size: 0x8, addend: 0x0, symName: __ZNSt3__117__compressed_pairIP4NodoNS_9allocatorIS1_EEE5firstB8ue170006Ev, symObjAddr: 0x5318, symBinAddr: 0x100007880, symSize: 0x24 }
  - { offsetInCU: 0x1C012, offset: 0x1C012, size: 0x8, addend: 0x0, symName: __ZNSt3__122__compressed_pair_elemIP4NodoLi0ELb0EE5__getB8ue170006Ev, symObjAddr: 0x533C, symBinAddr: 0x1000078A4, symSize: 0x14 }
  - { offsetInCU: 0x1C038, offset: 0x1C038, size: 0x8, addend: 0x0, symName: __ZNKSt3__16vectorI4NodoNS_9allocatorIS1_EEE31__annotate_contiguous_containerB8ue170006EPKvS6_S6_S6_, symObjAddr: 0x5350, symBinAddr: 0x1000078B8, symSize: 0x20 }
  - { offsetInCU: 0x1C08A, offset: 0x1C08A, size: 0x8, addend: 0x0, symName: __ZNKSt3__16vectorI4NodoNS_9allocatorIS1_EEE4dataB8ue170006Ev, symObjAddr: 0x5370, symBinAddr: 0x1000078D8, symSize: 0x28 }
  - { offsetInCU: 0x1C0B0, offset: 0x1C0B0, size: 0x8, addend: 0x0, symName: __ZNKSt3__16vectorI4NodoNS_9allocatorIS1_EEE8capacityB8ue170006Ev, symObjAddr: 0x5398, symBinAddr: 0x100007900, symSize: 0x40 }
  - { offsetInCU: 0x1C0D6, offset: 0x1C0D6, size: 0x8, addend: 0x0, symName: __ZNKSt3__16vectorI4NodoNS_9allocatorIS1_EEE9__end_capB8ue170006Ev, symObjAddr: 0x53EC, symBinAddr: 0x100007954, symSize: 0x28 }
  - { offsetInCU: 0x1C0FC, offset: 0x1C0FC, size: 0x8, addend: 0x0, symName: __ZNKSt3__117__compressed_pairIP4NodoNS_9allocatorIS1_EEE5firstB8ue170006Ev, symObjAddr: 0x5414, symBinAddr: 0x10000797C, symSize: 0x24 }
  - { offsetInCU: 0x1C122, offset: 0x1C122, size: 0x8, addend: 0x0, symName: __ZNKSt3__122__compressed_pair_elemIP4NodoLi0ELb0EE5__getB8ue170006Ev, symObjAddr: 0x5438, symBinAddr: 0x1000079A0, symSize: 0x14 }
  - { offsetInCU: 0x1C161, offset: 0x1C161, size: 0x8, addend: 0x0, symName: __ZNSt3__16vectorI4NodoNS_9allocatorIS1_EEE21_ConstructTransactionC1B8ue170006ERS4_m, symObjAddr: 0x544C, symBinAddr: 0x1000079B4, symSize: 0x3C }
  - { offsetInCU: 0x1C1A9, offset: 0x1C1A9, size: 0x8, addend: 0x0, symName: __ZNSt3__16vectorI4NodoNS_9allocatorIS1_EEE21_ConstructTransactionD1B8ue170006Ev, symObjAddr: 0x5508, symBinAddr: 0x100007A70, symSize: 0x2C }
  - { offsetInCU: 0x1C1D3, offset: 0x1C1D3, size: 0x8, addend: 0x0, symName: __ZNSt3__16vectorI4NodoNS_9allocatorIS1_EEE21_ConstructTransactionC2B8ue170006ERS4_m, symObjAddr: 0x5534, symBinAddr: 0x100007A9C, symSize: 0x4C }
  - { offsetInCU: 0x1C235, offset: 0x1C235, size: 0x8, addend: 0x0, symName: __ZNSt3__14pairIP4NodoS2_EC1B8ue170006ERKS2_S5_, symObjAddr: 0x5788, symBinAddr: 0x100007CF0, symSize: 0x3C }
  - { offsetInCU: 0x1C27B, offset: 0x1C27B, size: 0x8, addend: 0x0, symName: __ZNSt3__14pairIP4NodoS2_EC2B8ue170006ERKS2_S5_, symObjAddr: 0x57C4, symBinAddr: 0x100007D2C, symSize: 0x34 }
  - { offsetInCU: 0x1C2C1, offset: 0x1C2C1, size: 0x8, addend: 0x0, symName: __ZNSt3__129_AllocatorDestroyRangeReverseINS_9allocatorI4NodoEEPS2_EC1B8ue170006ERS3_RS4_S7_, symObjAddr: 0x5844, symBinAddr: 0x100007DAC, symSize: 0x44 }
  - { offsetInCU: 0x1C318, offset: 0x1C318, size: 0x8, addend: 0x0, symName: __ZNSt3__116allocator_traitsINS_9allocatorI4NodoEEE9constructB8ue170006IS2_JRS2_EvEEvRS3_PT_DpOT0_, symObjAddr: 0x5888, symBinAddr: 0x100007DF0, symSize: 0x34 }
  - { offsetInCU: 0x1C36F, offset: 0x1C36F, size: 0x8, addend: 0x0, symName: __ZNSt3__128__exception_guard_exceptionsINS_29_AllocatorDestroyRangeReverseINS_9allocatorI4NodoEEPS3_EEE10__completeB8ue170006Ev, symObjAddr: 0x58BC, symBinAddr: 0x100007E24, symSize: 0x1C }
  - { offsetInCU: 0x1C395, offset: 0x1C395, size: 0x8, addend: 0x0, symName: __ZNSt3__128__exception_guard_exceptionsINS_29_AllocatorDestroyRangeReverseINS_9allocatorI4NodoEEPS3_EEED1B8ue170006Ev, symObjAddr: 0x58D8, symBinAddr: 0x100007E40, symSize: 0x2C }
  - { offsetInCU: 0x1C3BF, offset: 0x1C3BF, size: 0x8, addend: 0x0, symName: __ZNSt3__128__exception_guard_exceptionsINS_29_AllocatorDestroyRangeReverseINS_9allocatorI4NodoEEPS3_EEEC1B8ue170006ES6_, symObjAddr: 0x5904, symBinAddr: 0x100007E6C, symSize: 0x34 }
  - { offsetInCU: 0x1C3F8, offset: 0x1C3F8, size: 0x8, addend: 0x0, symName: __ZNSt3__128__exception_guard_exceptionsINS_29_AllocatorDestroyRangeReverseINS_9allocatorI4NodoEEPS3_EEEC2B8ue170006ES6_, symObjAddr: 0x5938, symBinAddr: 0x100007EA0, symSize: 0x30 }
  - { offsetInCU: 0x1C431, offset: 0x1C431, size: 0x8, addend: 0x0, symName: __ZNSt3__129_AllocatorDestroyRangeReverseINS_9allocatorI4NodoEEPS2_EC2B8ue170006ERS3_RS4_S7_, symObjAddr: 0x5968, symBinAddr: 0x100007ED0, symSize: 0x38 }
  - { offsetInCU: 0x1C488, offset: 0x1C488, size: 0x8, addend: 0x0, symName: __ZNSt3__19allocatorI4NodoE9constructB8ue170006IS1_JRS1_EEEvPT_DpOT0_, symObjAddr: 0x59A0, symBinAddr: 0x100007F08, symSize: 0x30 }
  - { offsetInCU: 0x1C4DE, offset: 0x1C4DE, size: 0x8, addend: 0x0, symName: __ZNSt3__128__exception_guard_exceptionsINS_29_AllocatorDestroyRangeReverseINS_9allocatorI4NodoEEPS3_EEED2B8ue170006Ev, symObjAddr: 0x59D0, symBinAddr: 0x100007F38, symSize: 0x48 }
  - { offsetInCU: 0x1C508, offset: 0x1C508, size: 0x8, addend: 0x0, symName: __ZNKSt3__129_AllocatorDestroyRangeReverseINS_9allocatorI4NodoEEPS2_EclB8ue170006Ev, symObjAddr: 0x5A18, symBinAddr: 0x100007F80, symSize: 0x68 }
  - { offsetInCU: 0x1C52E, offset: 0x1C52E, size: 0x8, addend: 0x0, symName: __ZNSt3__116reverse_iteratorIP4NodoEC1B8ue170006ES2_, symObjAddr: 0x5AF0, symBinAddr: 0x100008058, symSize: 0x34 }
  - { offsetInCU: 0x1C566, offset: 0x1C566, size: 0x8, addend: 0x0, symName: __ZNSt3__116allocator_traitsINS_9allocatorI4NodoEEE7destroyB8ue170006IS2_vEEvRS3_PT_, symObjAddr: 0x5B6C, symBinAddr: 0x1000080D4, symSize: 0x2C }
  - { offsetInCU: 0x1C5A3, offset: 0x1C5A3, size: 0x8, addend: 0x0, symName: __ZNSt3__116reverse_iteratorIP4NodoEppB8ue170006Ev, symObjAddr: 0x5BBC, symBinAddr: 0x100008124, symSize: 0x20 }
  - { offsetInCU: 0x1C5C9, offset: 0x1C5C9, size: 0x8, addend: 0x0, symName: __ZNKSt3__116reverse_iteratorIP4NodoE4baseB8ue170006Ev, symObjAddr: 0x5BDC, symBinAddr: 0x100008144, symSize: 0x18 }
  - { offsetInCU: 0x1C5EF, offset: 0x1C5EF, size: 0x8, addend: 0x0, symName: __ZNSt3__19allocatorI4NodoE7destroyB8ue170006EPS1_, symObjAddr: 0x5BF4, symBinAddr: 0x10000815C, symSize: 0x28 }
  - { offsetInCU: 0x1C628, offset: 0x1C628, size: 0x8, addend: 0x0, symName: __ZNSt3__119__to_address_helperINS_16reverse_iteratorIP4NodoEEvE6__callB8ue170006ERKS4_, symObjAddr: 0x5C1C, symBinAddr: 0x100008184, symSize: 0x4C }
  - { offsetInCU: 0x1C64B, offset: 0x1C64B, size: 0x8, addend: 0x0, symName: __ZNKSt3__116reverse_iteratorIP4NodoEptB8ue170006Ev, symObjAddr: 0x5C68, symBinAddr: 0x1000081D0, symSize: 0x24 }
  - { offsetInCU: 0x1C671, offset: 0x1C671, size: 0x8, addend: 0x0, symName: __ZNKSt3__116reverse_iteratorIP4NodoEdeB8ue170006Ev, symObjAddr: 0x5C8C, symBinAddr: 0x1000081F4, symSize: 0x28 }
  - { offsetInCU: 0x1C6A5, offset: 0x1C6A5, size: 0x8, addend: 0x0, symName: __ZNSt3__116reverse_iteratorIP4NodoEC2B8ue170006ES2_, symObjAddr: 0x5CB4, symBinAddr: 0x10000821C, symSize: 0x28 }
  - { offsetInCU: 0x1C6DD, offset: 0x1C6DD, size: 0x8, addend: 0x0, symName: __ZNSt3__118__unwrap_iter_implIP4NodoLb1EE8__unwrapB8ue170006ES2_, symObjAddr: 0x5CDC, symBinAddr: 0x100008244, symSize: 0x24 }
  - { offsetInCU: 0x1C700, offset: 0x1C700, size: 0x8, addend: 0x0, symName: __ZNSt3__118__unwrap_iter_implIP4NodoLb1EE8__rewrapB8ue170006ES2_S2_, symObjAddr: 0x5D00, symBinAddr: 0x100008268, symSize: 0x58 }
  - { offsetInCU: 0x1C731, offset: 0x1C731, size: 0x8, addend: 0x0, symName: __ZNSt3__16vectorI4NodoNS_9allocatorIS1_EEE21_ConstructTransactionD2B8ue170006Ev, symObjAddr: 0x5D58, symBinAddr: 0x1000082C0, symSize: 0x20 }
  - { offsetInCU: 0x1C75B, offset: 0x1C75B, size: 0x8, addend: 0x0, symName: __ZNSt3__128__exception_guard_exceptionsINS_6vectorI4NodoNS_9allocatorIS2_EEE16__destroy_vectorEED2B8ue170006Ev, symObjAddr: 0x5D78, symBinAddr: 0x1000082E0, symSize: 0x48 }
  - { offsetInCU: 0x1C785, offset: 0x1C785, size: 0x8, addend: 0x0, symName: __ZNSt3__16vectorI4NodoNS_9allocatorIS1_EEE16__destroy_vectorclB8ue170006Ev, symObjAddr: 0x5DC0, symBinAddr: 0x100008328, symSize: 0x90 }
  - { offsetInCU: 0x1C7AB, offset: 0x1C7AB, size: 0x8, addend: 0x0, symName: __ZNSt3__16vectorI4NodoNS_9allocatorIS1_EEE7__clearB8ue170006Ev, symObjAddr: 0x5E50, symBinAddr: 0x1000083B8, symSize: 0x28 }
  - { offsetInCU: 0x1C7D1, offset: 0x1C7D1, size: 0x8, addend: 0x0, symName: __ZNKSt3__16vectorI4NodoNS_9allocatorIS1_EEE17__annotate_deleteB8ue170006Ev, symObjAddr: 0x5E78, symBinAddr: 0x1000083E0, symSize: 0xD4 }
  - { offsetInCU: 0x1C7F7, offset: 0x1C7F7, size: 0x8, addend: 0x0, symName: __ZNSt3__116allocator_traitsINS_9allocatorI4NodoEEE10deallocateB8ue170006ERS3_PS2_m, symObjAddr: 0x5F4C, symBinAddr: 0x1000084B4, symSize: 0x34 }
  - { offsetInCU: 0x1C839, offset: 0x1C839, size: 0x8, addend: 0x0, symName: __ZNSt3__16vectorI4NodoNS_9allocatorIS1_EEE22__base_destruct_at_endB8ue170006EPS1_, symObjAddr: 0x5F80, symBinAddr: 0x1000084E8, symSize: 0xA0 }
  - { offsetInCU: 0x1C87D, offset: 0x1C87D, size: 0x8, addend: 0x0, symName: __ZNSt3__19allocatorI4NodoE10deallocateB8ue170006EPS1_m, symObjAddr: 0x6020, symBinAddr: 0x100008588, symSize: 0x74 }
  - { offsetInCU: 0x1C8BF, offset: 0x1C8BF, size: 0x8, addend: 0x0, symName: __ZNSt3__16vectorI4NodoNS_9allocatorIS1_EEEaSB8ue170006ERKS4_, symObjAddr: 0x6094, symBinAddr: 0x1000085FC, symSize: 0x68 }
  - { offsetInCU: 0x1C8F6, offset: 0x1C8F6, size: 0x8, addend: 0x0, symName: __ZNSt3__16vectorI4NodoNS_9allocatorIS1_EEE19__copy_assign_allocB8ue170006ERKS4_, symObjAddr: 0x60FC, symBinAddr: 0x100008664, symSize: 0x2C }
  - { offsetInCU: 0x1C92B, offset: 0x1C92B, size: 0x8, addend: 0x0, symName: __ZNSt3__16vectorI4NodoNS_9allocatorIS1_EEE6assignIPS1_Li0EEEvT_S7_, symObjAddr: 0x6128, symBinAddr: 0x100008690, symSize: 0x5C }
  - { offsetInCU: 0x1C980, offset: 0x1C980, size: 0x8, addend: 0x0, symName: __ZNSt3__16vectorI4NodoNS_9allocatorIS1_EEE19__copy_assign_allocB8ue170006ERKS4_NS_17integral_constantIbLb0EEE, symObjAddr: 0x6184, symBinAddr: 0x1000086EC, symSize: 0x14 }
  - { offsetInCU: 0x1C9BC, offset: 0x1C9BC, size: 0x8, addend: 0x0, symName: __ZNSt3__16vectorI4NodoNS_9allocatorIS1_EEE18__assign_with_sizeB8ue170006IPS1_S6_EEvT_T0_l, symObjAddr: 0x6198, symBinAddr: 0x100008700, symSize: 0x164 }
  - { offsetInCU: 0x1CA6C, offset: 0x1CA6C, size: 0x8, addend: 0x0, symName: __ZNSt3__16vectorI4NodoNS_9allocatorIS1_EEE17__destruct_at_endB8ue170006EPS1_, symObjAddr: 0x63E0, symBinAddr: 0x100008948, symSize: 0x4C }
  - { offsetInCU: 0x1CAB0, offset: 0x1CAB0, size: 0x8, addend: 0x0, symName: __ZNSt3__16vectorI4NodoNS_9allocatorIS1_EEE13__vdeallocateEv, symObjAddr: 0x642C, symBinAddr: 0x100008994, symSize: 0x94 }
  - { offsetInCU: 0x1CAD8, offset: 0x1CAD8, size: 0x8, addend: 0x0, symName: __ZNKSt3__16vectorI4NodoNS_9allocatorIS1_EEE11__recommendB8ue170006Em, symObjAddr: 0x64C0, symBinAddr: 0x100008A28, symSize: 0xB4 }
  - { offsetInCU: 0x1CB37, offset: 0x1CB37, size: 0x8, addend: 0x0, symName: __ZNKSt3__111__copy_loopINS_17_ClassicAlgPolicyEEclB8ue170006IP4NodoS5_S5_EENS_4pairIT_T1_EES7_T0_S8_, symObjAddr: 0x66D4, symBinAddr: 0x100008C3C, symSize: 0x88 }
  - { offsetInCU: 0x1CBA2, offset: 0x1CBA2, size: 0x8, addend: 0x0, symName: __ZNKSt3__16vectorI4NodoNS_9allocatorIS1_EEE17__annotate_shrinkB8ue170006Em, symObjAddr: 0x6788, symBinAddr: 0x100008CF0, symSize: 0xD0 }
  - { offsetInCU: 0x1CBD7, offset: 0x1CBD7, size: 0x8, addend: 0x0, symName: __ZNSt3__16vectorI4NodoNS_9allocatorIS1_EEE5clearB8ue170006Ev, symObjAddr: 0x6858, symBinAddr: 0x100008DC0, symSize: 0x44 }
  - { offsetInCU: 0x1CC0C, offset: 0x1CC0C, size: 0x8, addend: 0x0, symName: __ZNSt3__15queueI4NodoNS_5dequeIS1_NS_9allocatorIS1_EEEEED2Ev, symObjAddr: 0x6944, symBinAddr: 0x100008EAC, symSize: 0x2C }
  - { offsetInCU: 0x1CC39, offset: 0x1CC39, size: 0x8, addend: 0x0, symName: __ZNSt3__15dequeI4NodoNS_9allocatorIS1_EEED1B8ue170006Ev, symObjAddr: 0x6970, symBinAddr: 0x100008ED8, symSize: 0x2C }
  - { offsetInCU: 0x1CC63, offset: 0x1CC63, size: 0x8, addend: 0x0, symName: __ZNSt3__15dequeI4NodoNS_9allocatorIS1_EEED2B8ue170006Ev, symObjAddr: 0x699C, symBinAddr: 0x100008F04, symSize: 0xA4 }
  - { offsetInCU: 0x1CCB9, offset: 0x1CCB9, size: 0x8, addend: 0x0, symName: __ZNSt3__15dequeI4NodoNS_9allocatorIS1_EEE5clearEv, symObjAddr: 0x6A40, symBinAddr: 0x100008FA8, symSize: 0x1A8 }
  - { offsetInCU: 0x1CD1C, offset: 0x1CD1C, size: 0x8, addend: 0x0, symName: __ZNKSt3__15dequeI4NodoNS_9allocatorIS1_EEE17__annotate_deleteB8ue170006Ev, symObjAddr: 0x6BE8, symBinAddr: 0x100009150, symSize: 0xEC }
  - { offsetInCU: 0x1CD5F, offset: 0x1CD5F, size: 0x8, addend: 0x0, symName: __ZNSt3__114__split_bufferIP4NodoNS_9allocatorIS2_EEE5beginB8ue170006Ev, symObjAddr: 0x6CD4, symBinAddr: 0x10000923C, symSize: 0x18 }
  - { offsetInCU: 0x1CD85, offset: 0x1CD85, size: 0x8, addend: 0x0, symName: __ZNSt3__114__split_bufferIP4NodoNS_9allocatorIS2_EEE3endB8ue170006Ev, symObjAddr: 0x6CEC, symBinAddr: 0x100009254, symSize: 0x18 }
  - { offsetInCU: 0x1CDAB, offset: 0x1CDAB, size: 0x8, addend: 0x0, symName: __ZNSt3__15dequeI4NodoNS_9allocatorIS1_EEE7__allocB8ue170006Ev, symObjAddr: 0x6D04, symBinAddr: 0x10000926C, symSize: 0x28 }
  - { offsetInCU: 0x1CDD1, offset: 0x1CDD1, size: 0x8, addend: 0x0, symName: __ZNSt3__114__split_bufferIP4NodoNS_9allocatorIS2_EEED1Ev, symObjAddr: 0x6D2C, symBinAddr: 0x100009294, symSize: 0x2C }
  - { offsetInCU: 0x1CDFD, offset: 0x1CDFD, size: 0x8, addend: 0x0, symName: __ZNSt3__15dequeI4NodoNS_9allocatorIS1_EEE5beginB8ue170006Ev, symObjAddr: 0x6D58, symBinAddr: 0x1000092C0, symSize: 0xD4 }
  - { offsetInCU: 0x1CE32, offset: 0x1CE32, size: 0x8, addend: 0x0, symName: __ZNSt3__15dequeI4NodoNS_9allocatorIS1_EEE3endB8ue170006Ev, symObjAddr: 0x6E2C, symBinAddr: 0x100009394, symSize: 0xC4 }
  - { offsetInCU: 0x1CE76, offset: 0x1CE76, size: 0x8, addend: 0x0, symName: __ZNKSt3__116__deque_iteratorI4NodoPS1_RS1_PS2_lLl85EEdeB8ue170006Ev, symObjAddr: 0x6F24, symBinAddr: 0x10000948C, symSize: 0x18 }
  - { offsetInCU: 0x1CE9C, offset: 0x1CE9C, size: 0x8, addend: 0x0, symName: __ZNSt3__116__deque_iteratorI4NodoPS1_RS1_PS2_lLl85EEppB8ue170006Ev, symObjAddr: 0x6F3C, symBinAddr: 0x1000094A4, symSize: 0x70 }
  - { offsetInCU: 0x1CEC2, offset: 0x1CEC2, size: 0x8, addend: 0x0, symName: __ZNSt3__15dequeI4NodoNS_9allocatorIS1_EEE6__sizeB8ue170006Ev, symObjAddr: 0x6FAC, symBinAddr: 0x100009514, symSize: 0x28 }
  - { offsetInCU: 0x1CEE8, offset: 0x1CEE8, size: 0x8, addend: 0x0, symName: __ZNKSt3__114__split_bufferIP4NodoNS_9allocatorIS2_EEE4sizeB8ue170006Ev, symObjAddr: 0x6FD4, symBinAddr: 0x10000953C, symSize: 0x28 }
  - { offsetInCU: 0x1CF0E, offset: 0x1CF0E, size: 0x8, addend: 0x0, symName: __ZNSt3__114__split_bufferIP4NodoNS_9allocatorIS2_EEE5frontB8ue170006Ev, symObjAddr: 0x6FFC, symBinAddr: 0x100009564, symSize: 0x18 }
  - { offsetInCU: 0x1CF34, offset: 0x1CF34, size: 0x8, addend: 0x0, symName: __ZNSt3__114__split_bufferIP4NodoNS_9allocatorIS2_EEE9pop_frontB8ue170006Ev, symObjAddr: 0x7014, symBinAddr: 0x10000957C, symSize: 0x2C }
  - { offsetInCU: 0x1CF5A, offset: 0x1CF5A, size: 0x8, addend: 0x0, symName: __ZNKSt3__15dequeI4NodoNS_9allocatorIS1_EEE14__annotate_newB8ue170006Em, symObjAddr: 0x7040, symBinAddr: 0x1000095A8, symSize: 0xC0 }
  - { offsetInCU: 0x1CF8F, offset: 0x1CF8F, size: 0x8, addend: 0x0, symName: __ZNKSt3__114__split_bufferIP4NodoNS_9allocatorIS2_EEE5emptyB8ue170006Ev, symObjAddr: 0x7100, symBinAddr: 0x100009668, symSize: 0x28 }
  - { offsetInCU: 0x1CFB5, offset: 0x1CFB5, size: 0x8, addend: 0x0, symName: __ZNSt3__116__deque_iteratorI4NodoPS1_RS1_PS2_lLl85EEC1B8ue170006ES4_S2_, symObjAddr: 0x7128, symBinAddr: 0x100009690, symSize: 0x3C }
  - { offsetInCU: 0x1CFFD, offset: 0x1CFFD, size: 0x8, addend: 0x0, symName: __ZNSt3__116__deque_iteratorI4NodoPS1_RS1_PS2_lLl85EEC2B8ue170006ES4_S2_, symObjAddr: 0x7164, symBinAddr: 0x1000096CC, symSize: 0x2C }
  - { offsetInCU: 0x1D045, offset: 0x1D045, size: 0x8, addend: 0x0, symName: __ZNKSt3__15dequeI4NodoNS_9allocatorIS1_EEE4sizeB8ue170006Ev, symObjAddr: 0x7190, symBinAddr: 0x1000096F8, symSize: 0x28 }
  - { offsetInCU: 0x1D06B, offset: 0x1D06B, size: 0x8, addend: 0x0, symName: __ZNKSt3__15dequeI4NodoNS_9allocatorIS1_EEE6__sizeB8ue170006Ev, symObjAddr: 0x71B8, symBinAddr: 0x100009720, symSize: 0x28 }
  - { offsetInCU: 0x1D091, offset: 0x1D091, size: 0x8, addend: 0x0, symName: __ZNKSt3__117__compressed_pairImNS_9allocatorI4NodoEEE5firstB8ue170006Ev, symObjAddr: 0x71E0, symBinAddr: 0x100009748, symSize: 0x24 }
  - { offsetInCU: 0x1D0B7, offset: 0x1D0B7, size: 0x8, addend: 0x0, symName: __ZNKSt3__122__compressed_pair_elemImLi0ELb0EE5__getB8ue170006Ev, symObjAddr: 0x7204, symBinAddr: 0x10000976C, symSize: 0x14 }
  - { offsetInCU: 0x1D0DD, offset: 0x1D0DD, size: 0x8, addend: 0x0, symName: __ZNSt3__117__compressed_pairImNS_9allocatorI4NodoEEE5firstB8ue170006Ev, symObjAddr: 0x7248, symBinAddr: 0x1000097B0, symSize: 0x24 }
  - { offsetInCU: 0x1D103, offset: 0x1D103, size: 0x8, addend: 0x0, symName: __ZNSt3__114__split_bufferIP4NodoNS_9allocatorIS2_EEE19__destruct_at_beginB8ue170006EPS2_, symObjAddr: 0x726C, symBinAddr: 0x1000097D4, symSize: 0x2C }
  - { offsetInCU: 0x1D137, offset: 0x1D137, size: 0x8, addend: 0x0, symName: __ZNSt3__114__split_bufferIP4NodoNS_9allocatorIS2_EEE19__destruct_at_beginEPS2_NS_17integral_constantIbLb1EEE, symObjAddr: 0x7298, symBinAddr: 0x100009800, symSize: 0x20 }
  - { offsetInCU: 0x1D177, offset: 0x1D177, size: 0x8, addend: 0x0, symName: __ZNKSt3__15dequeI4NodoNS_9allocatorIS1_EEE18__annotate_from_toB8ue170006EmmNS4_22__asan_annotation_typeENS4_23__asan_annotation_placeE, symObjAddr: 0x72B8, symBinAddr: 0x100009820, symSize: 0x598 }
  - { offsetInCU: 0x1D333, offset: 0x1D333, size: 0x8, addend: 0x0, symName: __ZNKSt3__114__split_bufferIP4NodoNS_9allocatorIS2_EEE5beginB8ue170006Ev, symObjAddr: 0x7850, symBinAddr: 0x100009DB8, symSize: 0x18 }
  - { offsetInCU: 0x1D359, offset: 0x1D359, size: 0x8, addend: 0x0, symName: __ZNKSt3__15dequeI4NodoNS_9allocatorIS1_EEE5emptyB8ue170006Ev, symObjAddr: 0x7868, symBinAddr: 0x100009DD0, symSize: 0x30 }
  - { offsetInCU: 0x1D37F, offset: 0x1D37F, size: 0x8, addend: 0x0, symName: __ZNKSt3__15dequeI4NodoNS_9allocatorIS1_EEE44__annotate_double_ended_contiguous_containerB8ue170006EPKvS6_S6_S6_S6_S6_, symObjAddr: 0x7898, symBinAddr: 0x100009E00, symSize: 0x28 }
  - { offsetInCU: 0x1D3E7, offset: 0x1D3E7, size: 0x8, addend: 0x0, symName: __ZNKSt3__15dequeI4NodoNS_9allocatorIS1_EEE22__annotate_whole_blockB8ue170006EmNS4_22__asan_annotation_typeE, symObjAddr: 0x78C0, symBinAddr: 0x100009E28, symSize: 0xAC }
  - { offsetInCU: 0x1D458, offset: 0x1D458, size: 0x8, addend: 0x0, symName: __ZNKSt3__15dequeI4NodoNS_9allocatorIS1_EEE23__annotate_poison_blockB8ue170006EPKvS6_, symObjAddr: 0x796C, symBinAddr: 0x100009ED4, symSize: 0x44 }
  - { offsetInCU: 0x1D49C, offset: 0x1D49C, size: 0x8, addend: 0x0, symName: __ZNSt3__117__compressed_pairImNS_9allocatorI4NodoEEE6secondB8ue170006Ev, symObjAddr: 0x79B0, symBinAddr: 0x100009F18, symSize: 0x24 }
  - { offsetInCU: 0x1D4C2, offset: 0x1D4C2, size: 0x8, addend: 0x0, symName: __ZNSt3__114__split_bufferIP4NodoNS_9allocatorIS2_EEED2Ev, symObjAddr: 0x79D4, symBinAddr: 0x100009F3C, symSize: 0x80 }
  - { offsetInCU: 0x1D4EE, offset: 0x1D4EE, size: 0x8, addend: 0x0, symName: __ZNSt3__114__split_bufferIP4NodoNS_9allocatorIS2_EEE5clearB8ue170006Ev, symObjAddr: 0x7A54, symBinAddr: 0x100009FBC, symSize: 0x28 }
  - { offsetInCU: 0x1D514, offset: 0x1D514, size: 0x8, addend: 0x0, symName: __ZNSt3__116allocator_traitsINS_9allocatorIP4NodoEEE10deallocateB8ue170006ERS4_PS3_m, symObjAddr: 0x7A7C, symBinAddr: 0x100009FE4, symSize: 0x34 }
  - { offsetInCU: 0x1D556, offset: 0x1D556, size: 0x8, addend: 0x0, symName: __ZNSt3__114__split_bufferIP4NodoNS_9allocatorIS2_EEE7__allocB8ue170006Ev, symObjAddr: 0x7AB0, symBinAddr: 0x10000A018, symSize: 0x28 }
  - { offsetInCU: 0x1D57C, offset: 0x1D57C, size: 0x8, addend: 0x0, symName: __ZNKSt3__114__split_bufferIP4NodoNS_9allocatorIS2_EEE8capacityB8ue170006Ev, symObjAddr: 0x7AD8, symBinAddr: 0x10000A040, symSize: 0x40 }
  - { offsetInCU: 0x1D5A2, offset: 0x1D5A2, size: 0x8, addend: 0x0, symName: __ZNSt3__114__split_bufferIP4NodoNS_9allocatorIS2_EEE17__destruct_at_endB8ue170006EPS2_, symObjAddr: 0x7B18, symBinAddr: 0x10000A080, symSize: 0x2C }
  - { offsetInCU: 0x1D5D6, offset: 0x1D5D6, size: 0x8, addend: 0x0, symName: __ZNSt3__114__split_bufferIP4NodoNS_9allocatorIS2_EEE17__destruct_at_endB8ue170006EPS2_NS_17integral_constantIbLb0EEE, symObjAddr: 0x7B44, symBinAddr: 0x10000A0AC, symSize: 0x94 }
  - { offsetInCU: 0x1D616, offset: 0x1D616, size: 0x8, addend: 0x0, symName: __ZNSt3__116allocator_traitsINS_9allocatorIP4NodoEEE7destroyB8ue170006IS3_vEEvRS4_PT_, symObjAddr: 0x7BD8, symBinAddr: 0x10000A140, symSize: 0x2C }
  - { offsetInCU: 0x1D653, offset: 0x1D653, size: 0x8, addend: 0x0, symName: __ZNSt3__19allocatorIP4NodoE7destroyB8ue170006EPS2_, symObjAddr: 0x7C18, symBinAddr: 0x10000A180, symSize: 0x14 }
  - { offsetInCU: 0x1D687, offset: 0x1D687, size: 0x8, addend: 0x0, symName: __ZNSt3__19allocatorIP4NodoE10deallocateB8ue170006EPS2_m, symObjAddr: 0x7C2C, symBinAddr: 0x10000A194, symSize: 0x70 }
  - { offsetInCU: 0x1D6C9, offset: 0x1D6C9, size: 0x8, addend: 0x0, symName: __ZNSt3__117__compressed_pairIPP4NodoNS_9allocatorIS2_EEE6secondB8ue170006Ev, symObjAddr: 0x7C9C, symBinAddr: 0x10000A204, symSize: 0x24 }
  - { offsetInCU: 0x1D6EF, offset: 0x1D6EF, size: 0x8, addend: 0x0, symName: __ZNSt3__122__compressed_pair_elemINS_9allocatorIP4NodoEELi1ELb1EE5__getB8ue170006Ev, symObjAddr: 0x7CC0, symBinAddr: 0x10000A228, symSize: 0x14 }
  - { offsetInCU: 0x1D715, offset: 0x1D715, size: 0x8, addend: 0x0, symName: __ZNKSt3__114__split_bufferIP4NodoNS_9allocatorIS2_EEE9__end_capB8ue170006Ev, symObjAddr: 0x7CD4, symBinAddr: 0x10000A23C, symSize: 0x28 }
  - { offsetInCU: 0x1D73B, offset: 0x1D73B, size: 0x8, addend: 0x0, symName: __ZNKSt3__117__compressed_pairIPP4NodoNS_9allocatorIS2_EEE5firstB8ue170006Ev, symObjAddr: 0x7CFC, symBinAddr: 0x10000A264, symSize: 0x24 }
  - { offsetInCU: 0x1D761, offset: 0x1D761, size: 0x8, addend: 0x0, symName: __ZNKSt3__122__compressed_pair_elemIPP4NodoLi0ELb0EE5__getB8ue170006Ev, symObjAddr: 0x7D20, symBinAddr: 0x10000A288, symSize: 0x14 }
  - { offsetInCU: 0x1D787, offset: 0x1D787, size: 0x8, addend: 0x0, symName: __ZN5GrafoD2Ev, symObjAddr: 0x7D34, symBinAddr: 0x10000A29C, symSize: 0x98 }
  - { offsetInCU: 0x1D7B3, offset: 0x1D7B3, size: 0x8, addend: 0x0, symName: __ZNSt3__15stackIiNS_5dequeIiNS_9allocatorIiEEEEED2Ev, symObjAddr: 0x7DCC, symBinAddr: 0x10000A334, symSize: 0x2C }
  - { offsetInCU: 0x1D7DF, offset: 0x1D7DF, size: 0x8, addend: 0x0, symName: __ZNSt3__15dequeIiNS_9allocatorIiEEED1B8ue170006Ev, symObjAddr: 0x7DF8, symBinAddr: 0x10000A360, symSize: 0x2C }
  - { offsetInCU: 0x1D809, offset: 0x1D809, size: 0x8, addend: 0x0, symName: __ZNSt3__15dequeIiNS_9allocatorIiEEED2B8ue170006Ev, symObjAddr: 0x7E24, symBinAddr: 0x10000A38C, symSize: 0xA4 }
  - { offsetInCU: 0x1D85F, offset: 0x1D85F, size: 0x8, addend: 0x0, symName: __ZNSt3__15dequeIiNS_9allocatorIiEEE5clearEv, symObjAddr: 0x7EC8, symBinAddr: 0x10000A430, symSize: 0x1A8 }
  - { offsetInCU: 0x1D8C2, offset: 0x1D8C2, size: 0x8, addend: 0x0, symName: __ZNKSt3__15dequeIiNS_9allocatorIiEEE17__annotate_deleteB8ue170006Ev, symObjAddr: 0x8070, symBinAddr: 0x10000A5D8, symSize: 0xE8 }
  - { offsetInCU: 0x1D905, offset: 0x1D905, size: 0x8, addend: 0x0, symName: __ZNSt3__114__split_bufferIPiNS_9allocatorIS1_EEE5beginB8ue170006Ev, symObjAddr: 0x8158, symBinAddr: 0x10000A6C0, symSize: 0x18 }
  - { offsetInCU: 0x1D92B, offset: 0x1D92B, size: 0x8, addend: 0x0, symName: __ZNSt3__114__split_bufferIPiNS_9allocatorIS1_EEE3endB8ue170006Ev, symObjAddr: 0x8170, symBinAddr: 0x10000A6D8, symSize: 0x18 }
  - { offsetInCU: 0x1D951, offset: 0x1D951, size: 0x8, addend: 0x0, symName: __ZNSt3__116allocator_traitsINS_9allocatorIiEEE10deallocateB8ue170006ERS2_Pim, symObjAddr: 0x8188, symBinAddr: 0x10000A6F0, symSize: 0x34 }
  - { offsetInCU: 0x1D993, offset: 0x1D993, size: 0x8, addend: 0x0, symName: __ZNSt3__15dequeIiNS_9allocatorIiEEE7__allocB8ue170006Ev, symObjAddr: 0x81BC, symBinAddr: 0x10000A724, symSize: 0x28 }
  - { offsetInCU: 0x1D9B9, offset: 0x1D9B9, size: 0x8, addend: 0x0, symName: __ZNSt3__114__split_bufferIPiNS_9allocatorIS1_EEED1Ev, symObjAddr: 0x81E4, symBinAddr: 0x10000A74C, symSize: 0x2C }
  - { offsetInCU: 0x1D9E5, offset: 0x1D9E5, size: 0x8, addend: 0x0, symName: __ZNSt3__15dequeIiNS_9allocatorIiEEE5beginB8ue170006Ev, symObjAddr: 0x8210, symBinAddr: 0x10000A778, symSize: 0xCC }
  - { offsetInCU: 0x1DA1A, offset: 0x1DA1A, size: 0x8, addend: 0x0, symName: __ZNSt3__15dequeIiNS_9allocatorIiEEE3endB8ue170006Ev, symObjAddr: 0x82DC, symBinAddr: 0x10000A844, symSize: 0xBC }
  - { offsetInCU: 0x1DA5E, offset: 0x1DA5E, size: 0x8, addend: 0x0, symName: __ZNSt3__116allocator_traitsINS_9allocatorIiEEE7destroyB8ue170006IivEEvRS2_PT_, symObjAddr: 0x83CC, symBinAddr: 0x10000A934, symSize: 0x2C }
  - { offsetInCU: 0x1DA9B, offset: 0x1DA9B, size: 0x8, addend: 0x0, symName: __ZNKSt3__116__deque_iteratorIiPiRiPS1_lLl1024EEdeB8ue170006Ev, symObjAddr: 0x83F8, symBinAddr: 0x10000A960, symSize: 0x18 }
  - { offsetInCU: 0x1DAC1, offset: 0x1DAC1, size: 0x8, addend: 0x0, symName: __ZNSt3__116__deque_iteratorIiPiRiPS1_lLl1024EEppB8ue170006Ev, symObjAddr: 0x8410, symBinAddr: 0x10000A978, symSize: 0x70 }
  - { offsetInCU: 0x1DAE7, offset: 0x1DAE7, size: 0x8, addend: 0x0, symName: __ZNSt3__15dequeIiNS_9allocatorIiEEE6__sizeB8ue170006Ev, symObjAddr: 0x8480, symBinAddr: 0x10000A9E8, symSize: 0x28 }
  - { offsetInCU: 0x1DB0D, offset: 0x1DB0D, size: 0x8, addend: 0x0, symName: __ZNKSt3__114__split_bufferIPiNS_9allocatorIS1_EEE4sizeB8ue170006Ev, symObjAddr: 0x84A8, symBinAddr: 0x10000AA10, symSize: 0x28 }
  - { offsetInCU: 0x1DB33, offset: 0x1DB33, size: 0x8, addend: 0x0, symName: __ZNSt3__114__split_bufferIPiNS_9allocatorIS1_EEE5frontB8ue170006Ev, symObjAddr: 0x84D0, symBinAddr: 0x10000AA38, symSize: 0x18 }
  - { offsetInCU: 0x1DB59, offset: 0x1DB59, size: 0x8, addend: 0x0, symName: __ZNSt3__114__split_bufferIPiNS_9allocatorIS1_EEE9pop_frontB8ue170006Ev, symObjAddr: 0x84E8, symBinAddr: 0x10000AA50, symSize: 0x2C }
  - { offsetInCU: 0x1DB7F, offset: 0x1DB7F, size: 0x8, addend: 0x0, symName: __ZNKSt3__15dequeIiNS_9allocatorIiEEE14__annotate_newB8ue170006Em, symObjAddr: 0x8514, symBinAddr: 0x10000AA7C, symSize: 0xB8 }
  - { offsetInCU: 0x1DBB4, offset: 0x1DBB4, size: 0x8, addend: 0x0, symName: __ZNKSt3__114__split_bufferIPiNS_9allocatorIS1_EEE5emptyB8ue170006Ev, symObjAddr: 0x85CC, symBinAddr: 0x10000AB34, symSize: 0x28 }
  - { offsetInCU: 0x1DBDA, offset: 0x1DBDA, size: 0x8, addend: 0x0, symName: __ZNSt3__116__deque_iteratorIiPiRiPS1_lLl1024EEC1B8ue170006ES3_S1_, symObjAddr: 0x85F4, symBinAddr: 0x10000AB5C, symSize: 0x3C }
  - { offsetInCU: 0x1DC22, offset: 0x1DC22, size: 0x8, addend: 0x0, symName: __ZNSt3__116__deque_iteratorIiPiRiPS1_lLl1024EEC2B8ue170006ES3_S1_, symObjAddr: 0x8630, symBinAddr: 0x10000AB98, symSize: 0x2C }
  - { offsetInCU: 0x1DC6A, offset: 0x1DC6A, size: 0x8, addend: 0x0, symName: __ZNKSt3__15dequeIiNS_9allocatorIiEEE4sizeB8ue170006Ev, symObjAddr: 0x865C, symBinAddr: 0x10000ABC4, symSize: 0x28 }
  - { offsetInCU: 0x1DC90, offset: 0x1DC90, size: 0x8, addend: 0x0, symName: __ZNKSt3__15dequeIiNS_9allocatorIiEEE6__sizeB8ue170006Ev, symObjAddr: 0x8684, symBinAddr: 0x10000ABEC, symSize: 0x28 }
  - { offsetInCU: 0x1DCB6, offset: 0x1DCB6, size: 0x8, addend: 0x0, symName: __ZNKSt3__117__compressed_pairImNS_9allocatorIiEEE5firstB8ue170006Ev, symObjAddr: 0x86AC, symBinAddr: 0x10000AC14, symSize: 0x24 }
  - { offsetInCU: 0x1DCDC, offset: 0x1DCDC, size: 0x8, addend: 0x0, symName: __ZNSt3__19allocatorIiE7destroyB8ue170006EPi, symObjAddr: 0x8700, symBinAddr: 0x10000AC68, symSize: 0x14 }
  - { offsetInCU: 0x1DD10, offset: 0x1DD10, size: 0x8, addend: 0x0, symName: __ZNSt3__117__compressed_pairImNS_9allocatorIiEEE5firstB8ue170006Ev, symObjAddr: 0x8714, symBinAddr: 0x10000AC7C, symSize: 0x24 }
  - { offsetInCU: 0x1DD36, offset: 0x1DD36, size: 0x8, addend: 0x0, symName: __ZNSt3__114__split_bufferIPiNS_9allocatorIS1_EEE19__destruct_at_beginB8ue170006EPS1_, symObjAddr: 0x8738, symBinAddr: 0x10000ACA0, symSize: 0x2C }
  - { offsetInCU: 0x1DD6A, offset: 0x1DD6A, size: 0x8, addend: 0x0, symName: __ZNSt3__114__split_bufferIPiNS_9allocatorIS1_EEE19__destruct_at_beginEPS1_NS_17integral_constantIbLb1EEE, symObjAddr: 0x8764, symBinAddr: 0x10000ACCC, symSize: 0x20 }
  - { offsetInCU: 0x1DDAA, offset: 0x1DDAA, size: 0x8, addend: 0x0, symName: __ZNKSt3__15dequeIiNS_9allocatorIiEEE18__annotate_from_toB8ue170006EmmNS3_22__asan_annotation_typeENS3_23__asan_annotation_placeE, symObjAddr: 0x8784, symBinAddr: 0x10000ACEC, symSize: 0x580 }
  - { offsetInCU: 0x1DF66, offset: 0x1DF66, size: 0x8, addend: 0x0, symName: __ZNKSt3__114__split_bufferIPiNS_9allocatorIS1_EEE5beginB8ue170006Ev, symObjAddr: 0x8D04, symBinAddr: 0x10000B26C, symSize: 0x18 }
  - { offsetInCU: 0x1DF8C, offset: 0x1DF8C, size: 0x8, addend: 0x0, symName: __ZNKSt3__15dequeIiNS_9allocatorIiEEE5emptyB8ue170006Ev, symObjAddr: 0x8D1C, symBinAddr: 0x10000B284, symSize: 0x30 }
  - { offsetInCU: 0x1DFB2, offset: 0x1DFB2, size: 0x8, addend: 0x0, symName: __ZNKSt3__15dequeIiNS_9allocatorIiEEE44__annotate_double_ended_contiguous_containerB8ue170006EPKvS5_S5_S5_S5_S5_, symObjAddr: 0x8D60, symBinAddr: 0x10000B2C8, symSize: 0x28 }
  - { offsetInCU: 0x1E01A, offset: 0x1E01A, size: 0x8, addend: 0x0, symName: __ZNKSt3__15dequeIiNS_9allocatorIiEEE22__annotate_whole_blockB8ue170006EmNS3_22__asan_annotation_typeE, symObjAddr: 0x8D88, symBinAddr: 0x10000B2F0, symSize: 0xAC }
  - { offsetInCU: 0x1E08B, offset: 0x1E08B, size: 0x8, addend: 0x0, symName: __ZNKSt3__15dequeIiNS_9allocatorIiEEE23__annotate_poison_blockB8ue170006EPKvS5_, symObjAddr: 0x8E34, symBinAddr: 0x10000B39C, symSize: 0x44 }
  - { offsetInCU: 0x1E0CF, offset: 0x1E0CF, size: 0x8, addend: 0x0, symName: __ZNSt3__19allocatorIiE10deallocateB8ue170006EPim, symObjAddr: 0x8E78, symBinAddr: 0x10000B3E0, symSize: 0x70 }
  - { offsetInCU: 0x1E111, offset: 0x1E111, size: 0x8, addend: 0x0, symName: __ZNSt3__117__compressed_pairImNS_9allocatorIiEEE6secondB8ue170006Ev, symObjAddr: 0x8EE8, symBinAddr: 0x10000B450, symSize: 0x24 }
  - { offsetInCU: 0x1E137, offset: 0x1E137, size: 0x8, addend: 0x0, symName: __ZNSt3__122__compressed_pair_elemINS_9allocatorIiEELi1ELb1EE5__getB8ue170006Ev, symObjAddr: 0x8F0C, symBinAddr: 0x10000B474, symSize: 0x14 }
  - { offsetInCU: 0x1E15D, offset: 0x1E15D, size: 0x8, addend: 0x0, symName: __ZNSt3__114__split_bufferIPiNS_9allocatorIS1_EEED2Ev, symObjAddr: 0x8F20, symBinAddr: 0x10000B488, symSize: 0x80 }
  - { offsetInCU: 0x1E189, offset: 0x1E189, size: 0x8, addend: 0x0, symName: __ZNSt3__114__split_bufferIPiNS_9allocatorIS1_EEE5clearB8ue170006Ev, symObjAddr: 0x8FA0, symBinAddr: 0x10000B508, symSize: 0x28 }
  - { offsetInCU: 0x1E1AF, offset: 0x1E1AF, size: 0x8, addend: 0x0, symName: __ZNSt3__116allocator_traitsINS_9allocatorIPiEEE10deallocateB8ue170006ERS3_PS2_m, symObjAddr: 0x8FC8, symBinAddr: 0x10000B530, symSize: 0x34 }
  - { offsetInCU: 0x1E1F1, offset: 0x1E1F1, size: 0x8, addend: 0x0, symName: __ZNSt3__114__split_bufferIPiNS_9allocatorIS1_EEE7__allocB8ue170006Ev, symObjAddr: 0x8FFC, symBinAddr: 0x10000B564, symSize: 0x28 }
  - { offsetInCU: 0x1E217, offset: 0x1E217, size: 0x8, addend: 0x0, symName: __ZNKSt3__114__split_bufferIPiNS_9allocatorIS1_EEE8capacityB8ue170006Ev, symObjAddr: 0x9024, symBinAddr: 0x10000B58C, symSize: 0x40 }
  - { offsetInCU: 0x1E23D, offset: 0x1E23D, size: 0x8, addend: 0x0, symName: __ZNSt3__114__split_bufferIPiNS_9allocatorIS1_EEE17__destruct_at_endB8ue170006EPS1_, symObjAddr: 0x9064, symBinAddr: 0x10000B5CC, symSize: 0x2C }
  - { offsetInCU: 0x1E271, offset: 0x1E271, size: 0x8, addend: 0x0, symName: __ZNSt3__114__split_bufferIPiNS_9allocatorIS1_EEE17__destruct_at_endB8ue170006EPS1_NS_17integral_constantIbLb0EEE, symObjAddr: 0x9090, symBinAddr: 0x10000B5F8, symSize: 0x94 }
  - { offsetInCU: 0x1E2B1, offset: 0x1E2B1, size: 0x8, addend: 0x0, symName: __ZNSt3__116allocator_traitsINS_9allocatorIPiEEE7destroyB8ue170006IS2_vEEvRS3_PT_, symObjAddr: 0x9124, symBinAddr: 0x10000B68C, symSize: 0x2C }
  - { offsetInCU: 0x1E2EE, offset: 0x1E2EE, size: 0x8, addend: 0x0, symName: __ZNSt3__19allocatorIPiE7destroyB8ue170006EPS1_, symObjAddr: 0x9164, symBinAddr: 0x10000B6CC, symSize: 0x14 }
  - { offsetInCU: 0x1E322, offset: 0x1E322, size: 0x8, addend: 0x0, symName: __ZNSt3__19allocatorIPiE10deallocateB8ue170006EPS1_m, symObjAddr: 0x9178, symBinAddr: 0x10000B6E0, symSize: 0x70 }
  - { offsetInCU: 0x1E364, offset: 0x1E364, size: 0x8, addend: 0x0, symName: __ZNSt3__117__compressed_pairIPPiNS_9allocatorIS1_EEE6secondB8ue170006Ev, symObjAddr: 0x91E8, symBinAddr: 0x10000B750, symSize: 0x24 }
  - { offsetInCU: 0x1E38A, offset: 0x1E38A, size: 0x8, addend: 0x0, symName: __ZNSt3__122__compressed_pair_elemINS_9allocatorIPiEELi1ELb1EE5__getB8ue170006Ev, symObjAddr: 0x920C, symBinAddr: 0x10000B774, symSize: 0x14 }
  - { offsetInCU: 0x1E3B0, offset: 0x1E3B0, size: 0x8, addend: 0x0, symName: __ZNKSt3__114__split_bufferIPiNS_9allocatorIS1_EEE9__end_capB8ue170006Ev, symObjAddr: 0x9220, symBinAddr: 0x10000B788, symSize: 0x28 }
  - { offsetInCU: 0x1E3D6, offset: 0x1E3D6, size: 0x8, addend: 0x0, symName: __ZNKSt3__117__compressed_pairIPPiNS_9allocatorIS1_EEE5firstB8ue170006Ev, symObjAddr: 0x9248, symBinAddr: 0x10000B7B0, symSize: 0x24 }
  - { offsetInCU: 0x1E3FC, offset: 0x1E3FC, size: 0x8, addend: 0x0, symName: __ZNKSt3__122__compressed_pair_elemIPPiLi0ELb0EE5__getB8ue170006Ev, symObjAddr: 0x926C, symBinAddr: 0x10000B7D4, symSize: 0x14 }
  - { offsetInCU: 0x1E422, offset: 0x1E422, size: 0x8, addend: 0x0, symName: __ZNSt3__13mapIifNS_4lessIiEENS_9allocatorINS_4pairIKifEEEEED2B8ue170006Ev, symObjAddr: 0x9280, symBinAddr: 0x10000B7E8, symSize: 0x2C }
  - { offsetInCU: 0x1E44C, offset: 0x1E44C, size: 0x8, addend: 0x0, symName: __ZNSt3__16vectorI4NodoNS_9allocatorIS1_EEED2B8ue170006Ev, symObjAddr: 0x92AC, symBinAddr: 0x10000B814, symSize: 0x3C }
  - { offsetInCU: 0x1E476, offset: 0x1E476, size: 0x8, addend: 0x0, symName: __ZNSt3__13setIiNS_4lessIiEENS_9allocatorIiEEEC2B8ue170006Ev, symObjAddr: 0x92E8, symBinAddr: 0x10000B850, symSize: 0x30 }
  - { offsetInCU: 0x1E4A0, offset: 0x1E4A0, size: 0x8, addend: 0x0, symName: __ZNSt3__16__treeIiNS_4lessIiEENS_9allocatorIiEEEC1ERKS2_, symObjAddr: 0x9318, symBinAddr: 0x10000B880, symSize: 0x34 }
  - { offsetInCU: 0x1E4DB, offset: 0x1E4DB, size: 0x8, addend: 0x0, symName: __ZNSt3__16__treeIiNS_4lessIiEENS_9allocatorIiEEEC2ERKS2_, symObjAddr: 0x934C, symBinAddr: 0x10000B8B4, symSize: 0x70 }
  - { offsetInCU: 0x1E516, offset: 0x1E516, size: 0x8, addend: 0x0, symName: __ZNSt3__117__compressed_pairINS_15__tree_end_nodeIPNS_16__tree_node_baseIPvEEEENS_9allocatorINS_11__tree_nodeIiS3_EEEEEC1B8ue170006ILb1EvEEv, symObjAddr: 0x93BC, symBinAddr: 0x10000B924, symSize: 0x2C }
  - { offsetInCU: 0x1E54B, offset: 0x1E54B, size: 0x8, addend: 0x0, symName: __ZNSt3__117__compressed_pairImNS_4lessIiEEEC1B8ue170006IiRKS2_EEOT_OT0_, symObjAddr: 0x93E8, symBinAddr: 0x10000B950, symSize: 0x3C }
  - { offsetInCU: 0x1E5A3, offset: 0x1E5A3, size: 0x8, addend: 0x0, symName: __ZNSt3__16__treeIiNS_4lessIiEENS_9allocatorIiEEE10__end_nodeB8ue170006Ev, symObjAddr: 0x9424, symBinAddr: 0x10000B98C, symSize: 0x2C }
  - { offsetInCU: 0x1E5C9, offset: 0x1E5C9, size: 0x8, addend: 0x0, symName: __ZNSt3__16__treeIiNS_4lessIiEENS_9allocatorIiEEE12__begin_nodeB8ue170006Ev, symObjAddr: 0x9450, symBinAddr: 0x10000B9B8, symSize: 0x14 }
  - { offsetInCU: 0x1E5EF, offset: 0x1E5EF, size: 0x8, addend: 0x0, symName: __ZNSt3__117__compressed_pairINS_15__tree_end_nodeIPNS_16__tree_node_baseIPvEEEENS_9allocatorINS_11__tree_nodeIiS3_EEEEEC2B8ue170006ILb1EvEEv, symObjAddr: 0x9464, symBinAddr: 0x10000B9CC, symSize: 0x34 }
  - { offsetInCU: 0x1E624, offset: 0x1E624, size: 0x8, addend: 0x0, symName: __ZNSt3__122__compressed_pair_elemINS_9allocatorINS_11__tree_nodeIiPvEEEELi1ELb1EEC2B8ue170006ENS_16__value_init_tagE, symObjAddr: 0x9498, symBinAddr: 0x10000BA00, symSize: 0x2C }
  - { offsetInCU: 0x1E658, offset: 0x1E658, size: 0x8, addend: 0x0, symName: __ZNSt3__19allocatorINS_11__tree_nodeIiPvEEEC2B8ue170006Ev, symObjAddr: 0x94C4, symBinAddr: 0x10000BA2C, symSize: 0x2C }
  - { offsetInCU: 0x1E682, offset: 0x1E682, size: 0x8, addend: 0x0, symName: __ZNSt3__116__non_trivial_ifILb1ENS_9allocatorINS_11__tree_nodeIiPvEEEEEC2B8ue170006Ev, symObjAddr: 0x94F0, symBinAddr: 0x10000BA58, symSize: 0x14 }
  - { offsetInCU: 0x1E6AC, offset: 0x1E6AC, size: 0x8, addend: 0x0, symName: __ZNSt3__117__compressed_pairImNS_4lessIiEEEC2B8ue170006IiRKS2_EEOT_OT0_, symObjAddr: 0x9504, symBinAddr: 0x10000BA6C, symSize: 0x44 }
  - { offsetInCU: 0x1E704, offset: 0x1E704, size: 0x8, addend: 0x0, symName: __ZNSt3__122__compressed_pair_elemINS_4lessIiEELi1ELb1EEC2B8ue170006IRKS2_vEEOT_, symObjAddr: 0x9548, symBinAddr: 0x10000BAB0, symSize: 0x18 }
  - { offsetInCU: 0x1E746, offset: 0x1E746, size: 0x8, addend: 0x0, symName: __ZNSt3__117__compressed_pairINS_15__tree_end_nodeIPNS_16__tree_node_baseIPvEEEENS_9allocatorINS_11__tree_nodeIiS3_EEEEE5firstB8ue170006Ev, symObjAddr: 0x9560, symBinAddr: 0x10000BAC8, symSize: 0x24 }
  - { offsetInCU: 0x1E76C, offset: 0x1E76C, size: 0x8, addend: 0x0, symName: __ZNSt3__16vectorIiNS_9allocatorIiEEEC2B8ue170006Ev, symObjAddr: 0x9584, symBinAddr: 0x10000BAEC, symSize: 0x44 }
  - { offsetInCU: 0x1E796, offset: 0x1E796, size: 0x8, addend: 0x0, symName: __ZNSt3__117__compressed_pairIPiNS_9allocatorIiEEEC1B8ue170006IDnNS_18__default_init_tagEEEOT_OT0_, symObjAddr: 0x95C8, symBinAddr: 0x10000BB30, symSize: 0x3C }
  - { offsetInCU: 0x1E7EE, offset: 0x1E7EE, size: 0x8, addend: 0x0, symName: __ZNSt3__117__compressed_pairIPiNS_9allocatorIiEEEC2B8ue170006IDnNS_18__default_init_tagEEEOT_OT0_, symObjAddr: 0x9604, symBinAddr: 0x10000BB6C, symSize: 0x40 }
  - { offsetInCU: 0x1E846, offset: 0x1E846, size: 0x8, addend: 0x0, symName: __ZNSt3__122__compressed_pair_elemIPiLi0ELb0EEC2B8ue170006IDnvEEOT_, symObjAddr: 0x9644, symBinAddr: 0x10000BBAC, symSize: 0x1C }
  - { offsetInCU: 0x1E888, offset: 0x1E888, size: 0x8, addend: 0x0, symName: __ZNSt3__122__compressed_pair_elemINS_9allocatorIiEELi1ELb1EEC2B8ue170006ENS_18__default_init_tagE, symObjAddr: 0x9660, symBinAddr: 0x10000BBC8, symSize: 0x2C }
  - { offsetInCU: 0x1E8BC, offset: 0x1E8BC, size: 0x8, addend: 0x0, symName: __ZNSt3__19allocatorIiEC2B8ue170006Ev, symObjAddr: 0x968C, symBinAddr: 0x10000BBF4, symSize: 0x2C }
  - { offsetInCU: 0x1E8E6, offset: 0x1E8E6, size: 0x8, addend: 0x0, symName: __ZNSt3__116__non_trivial_ifILb1ENS_9allocatorIiEEEC2B8ue170006Ev, symObjAddr: 0x96B8, symBinAddr: 0x10000BC20, symSize: 0x14 }
  - { offsetInCU: 0x1E910, offset: 0x1E910, size: 0x8, addend: 0x0, symName: __ZNSt3__19basic_iosIcNS_11char_traitsIcEEEC2B8ue170006Ev, symObjAddr: 0x96CC, symBinAddr: 0x10000BC34, symSize: 0x44 }
  - { offsetInCU: 0x1E93A, offset: 0x1E93A, size: 0x8, addend: 0x0, symName: __ZNSt3__114basic_iostreamIcNS_11char_traitsIcEEEC2B8ue170006EPNS_15basic_streambufIcS2_EE, symObjAddr: 0x9710, symBinAddr: 0x10000BC78, symSize: 0xB4 }
  - { offsetInCU: 0x1E980, offset: 0x1E980, size: 0x8, addend: 0x0, symName: __ZNSt3__115basic_stringbufIcNS_11char_traitsIcEENS_9allocatorIcEEEC1B8ue170006Ej, symObjAddr: 0x97C4, symBinAddr: 0x10000BD2C, symSize: 0x34 }
  - { offsetInCU: 0x1E9B9, offset: 0x1E9B9, size: 0x8, addend: 0x0, symName: __ZNSt3__18ios_baseC2B8ue170006Ev, symObjAddr: 0x97F8, symBinAddr: 0x10000BD60, symSize: 0x24 }
  - { offsetInCU: 0x1E9E3, offset: 0x1E9E3, size: 0x8, addend: 0x0, symName: __ZNSt3__113basic_istreamIcNS_11char_traitsIcEEEC2B8ue170006EPNS_15basic_streambufIcS2_EE, symObjAddr: 0x981C, symBinAddr: 0x10000BD84, symSize: 0x64 }
  - { offsetInCU: 0x1EA28, offset: 0x1EA28, size: 0x8, addend: 0x0, symName: __ZNSt3__113basic_ostreamIcNS_11char_traitsIcEEEC2B8ue170006Ev, symObjAddr: 0x9880, symBinAddr: 0x10000BDE8, symSize: 0x34 }
  - { offsetInCU: 0x1EA5F, offset: 0x1EA5F, size: 0x8, addend: 0x0, symName: __ZNSt3__19basic_iosIcNS_11char_traitsIcEEE4initB8ue170006EPNS_15basic_streambufIcS2_EE, symObjAddr: 0x98B4, symBinAddr: 0x10000BE1C, symSize: 0x44 }
  - { offsetInCU: 0x1EA96, offset: 0x1EA96, size: 0x8, addend: 0x0, symName: __ZNSt3__111char_traitsIcE3eofB8ue170006Ev, symObjAddr: 0x98F8, symBinAddr: 0x10000BE60, symSize: 0x8 }
  - { offsetInCU: 0x1EAAA, offset: 0x1EAAA, size: 0x8, addend: 0x0, symName: __ZNSt3__115basic_stringbufIcNS_11char_traitsIcEENS_9allocatorIcEEEC2B8ue170006Ej, symObjAddr: 0x9900, symBinAddr: 0x10000BE68, symSize: 0x90 }
  - { offsetInCU: 0x1EAE3, offset: 0x1EAE3, size: 0x8, addend: 0x0, symName: __ZNSt3__112basic_stringIcNS_11char_traitsIcEENS_9allocatorIcEEEC1B8ue170006Ev, symObjAddr: 0x9990, symBinAddr: 0x10000BEF8, symSize: 0x2C }
  - { offsetInCU: 0x1EB0D, offset: 0x1EB0D, size: 0x8, addend: 0x0, symName: __ZNSt3__112basic_stringIcNS_11char_traitsIcEENS_9allocatorIcEEEC2B8ue170006Ev, symObjAddr: 0x99BC, symBinAddr: 0x10000BF24, symSize: 0x3C }
  - { offsetInCU: 0x1EB37, offset: 0x1EB37, size: 0x8, addend: 0x0, symName: __ZNSt3__117__compressed_pairINS_12basic_stringIcNS_11char_traitsIcEENS_9allocatorIcEEE5__repES5_EC1B8ue170006INS_18__default_init_tagESA_EEOT_OT0_, symObjAddr: 0x99F8, symBinAddr: 0x10000BF60, symSize: 0x3C }
  - { offsetInCU: 0x1EB8F, offset: 0x1EB8F, size: 0x8, addend: 0x0, symName: __ZNSt3__112basic_stringIcNS_11char_traitsIcEENS_9allocatorIcEEE14__default_initB8ue170006Ev, symObjAddr: 0x9A34, symBinAddr: 0x10000BF9C, symSize: 0xB0 }
  - { offsetInCU: 0x1EBE1, offset: 0x1EBE1, size: 0x8, addend: 0x0, symName: __ZNSt3__117__compressed_pairINS_12basic_stringIcNS_11char_traitsIcEENS_9allocatorIcEEE5__repES5_EC2B8ue170006INS_18__default_init_tagESA_EEOT_OT0_, symObjAddr: 0x9AE4, symBinAddr: 0x10000C04C, symSize: 0x3C }
  - { offsetInCU: 0x1EC39, offset: 0x1EC39, size: 0x8, addend: 0x0, symName: __ZNSt3__122__compressed_pair_elemINS_12basic_stringIcNS_11char_traitsIcEENS_9allocatorIcEEE5__repELi0ELb0EEC2B8ue170006ENS_18__default_init_tagE, symObjAddr: 0x9B20, symBinAddr: 0x10000C088, symSize: 0x14 }
  - { offsetInCU: 0x1EC6D, offset: 0x1EC6D, size: 0x8, addend: 0x0, symName: __ZNSt3__122__compressed_pair_elemINS_9allocatorIcEELi1ELb1EEC2B8ue170006ENS_18__default_init_tagE, symObjAddr: 0x9B34, symBinAddr: 0x10000C09C, symSize: 0x2C }
  - { offsetInCU: 0x1ECA1, offset: 0x1ECA1, size: 0x8, addend: 0x0, symName: __ZNSt3__19allocatorIcEC2B8ue170006Ev, symObjAddr: 0x9B60, symBinAddr: 0x10000C0C8, symSize: 0x2C }
  - { offsetInCU: 0x1ECCB, offset: 0x1ECCB, size: 0x8, addend: 0x0, symName: __ZNSt3__116__non_trivial_ifILb1ENS_9allocatorIcEEEC2B8ue170006Ev, symObjAddr: 0x9B8C, symBinAddr: 0x10000C0F4, symSize: 0x14 }
  - { offsetInCU: 0x1ECF5, offset: 0x1ECF5, size: 0x8, addend: 0x0, symName: __ZNSt3__117__compressed_pairINS_12basic_stringIcNS_11char_traitsIcEENS_9allocatorIcEEE5__repES5_E5firstB8ue170006Ev, symObjAddr: 0x9BA0, symBinAddr: 0x10000C108, symSize: 0x24 }
  - { offsetInCU: 0x1ED1B, offset: 0x1ED1B, size: 0x8, addend: 0x0, symName: __ZNSt3__112basic_stringIcNS_11char_traitsIcEENS_9allocatorIcEEE11__recommendB8ue170006Em, symObjAddr: 0x9BC4, symBinAddr: 0x10000C12C, symSize: 0x9C }
  - { offsetInCU: 0x1ED4E, offset: 0x1ED4E, size: 0x8, addend: 0x0, symName: __ZNSt3__116allocator_traitsINS_9allocatorIcEEE8allocateB8ue170006ERS2_m, symObjAddr: 0x9C60, symBinAddr: 0x10000C1C8, symSize: 0x2C }
  - { offsetInCU: 0x1ED81, offset: 0x1ED81, size: 0x8, addend: 0x0, symName: __ZNSt3__112basic_stringIcNS_11char_traitsIcEENS_9allocatorIcEEE7__allocB8ue170006Ev, symObjAddr: 0x9C8C, symBinAddr: 0x10000C1F4, symSize: 0x24 }
  - { offsetInCU: 0x1EDA7, offset: 0x1EDA7, size: 0x8, addend: 0x0, symName: __ZNSt3__112basic_stringIcNS_11char_traitsIcEENS_9allocatorIcEEE16__begin_lifetimeB8ue170006EPcm, symObjAddr: 0x9CB0, symBinAddr: 0x10000C218, symSize: 0x14 }
  - { offsetInCU: 0x1EDDA, offset: 0x1EDDA, size: 0x8, addend: 0x0, symName: __ZNSt3__112basic_stringIcNS_11char_traitsIcEENS_9allocatorIcEEE18__set_long_pointerB8ue170006EPc, symObjAddr: 0x9CC4, symBinAddr: 0x10000C22C, symSize: 0x38 }
  - { offsetInCU: 0x1EE0F, offset: 0x1EE0F, size: 0x8, addend: 0x0, symName: __ZNSt3__112basic_stringIcNS_11char_traitsIcEENS_9allocatorIcEEE14__set_long_capB8ue170006Em, symObjAddr: 0x9CFC, symBinAddr: 0x10000C264, symSize: 0x70 }
  - { offsetInCU: 0x1EE44, offset: 0x1EE44, size: 0x8, addend: 0x0, symName: __ZNSt3__112basic_stringIcNS_11char_traitsIcEENS_9allocatorIcEEE15__set_long_sizeB8ue170006Em, symObjAddr: 0x9D6C, symBinAddr: 0x10000C2D4, symSize: 0x38 }
  - { offsetInCU: 0x1EE79, offset: 0x1EE79, size: 0x8, addend: 0x0, symName: __ZNSt3__122__compressed_pair_elemINS_12basic_stringIcNS_11char_traitsIcEENS_9allocatorIcEEE5__repELi0ELb0EE5__getB8ue170006Ev, symObjAddr: 0x9DA4, symBinAddr: 0x10000C30C, symSize: 0x14 }
  - { offsetInCU: 0x1EE9F, offset: 0x1EE9F, size: 0x8, addend: 0x0, symName: __ZNSt3__112basic_stringIcNS_11char_traitsIcEENS_9allocatorIcEEE10__align_itB8ue170006ILm16EEEmm, symObjAddr: 0x9DB8, symBinAddr: 0x10000C320, symSize: 0x1C }
  - { offsetInCU: 0x1EECD, offset: 0x1EECD, size: 0x8, addend: 0x0, symName: __ZNSt3__19allocatorIcE8allocateB8ue170006Em, symObjAddr: 0x9DD4, symBinAddr: 0x10000C33C, symSize: 0x84 }
  - { offsetInCU: 0x1EF0B, offset: 0x1EF0B, size: 0x8, addend: 0x0, symName: __ZNSt3__116allocator_traitsINS_9allocatorIcEEE8max_sizeB8ue170006IS2_vEEmRKS2_, symObjAddr: 0x9E58, symBinAddr: 0x10000C3C0, symSize: 0x24 }
  - { offsetInCU: 0x1EF39, offset: 0x1EF39, size: 0x8, addend: 0x0, symName: __ZNKSt3__19allocatorIcE8max_sizeB8ue170006Ev, symObjAddr: 0x9E7C, symBinAddr: 0x10000C3E4, symSize: 0x14 }
  - { offsetInCU: 0x1EF5F, offset: 0x1EF5F, size: 0x8, addend: 0x0, symName: __ZNSt3__117__compressed_pairINS_12basic_stringIcNS_11char_traitsIcEENS_9allocatorIcEEE5__repES5_E6secondB8ue170006Ev, symObjAddr: 0x9E90, symBinAddr: 0x10000C3F8, symSize: 0x24 }
  - { offsetInCU: 0x1EF85, offset: 0x1EF85, size: 0x8, addend: 0x0, symName: __ZNSt3__122__compressed_pair_elemINS_9allocatorIcEELi1ELb1EE5__getB8ue170006Ev, symObjAddr: 0x9EB4, symBinAddr: 0x10000C41C, symSize: 0x14 }
  - { offsetInCU: 0x1EFAB, offset: 0x1EFAB, size: 0x8, addend: 0x0, symName: __ZNSt3__13setIiNS_4lessIiEENS_9allocatorIiEEED2B8ue170006Ev, symObjAddr: 0x9EC8, symBinAddr: 0x10000C430, symSize: 0x2C }
  - { offsetInCU: 0x1EFD5, offset: 0x1EFD5, size: 0x8, addend: 0x0, symName: __ZNSt3__16__treeIiNS_4lessIiEENS_9allocatorIiEEED1Ev, symObjAddr: 0x9EF4, symBinAddr: 0x10000C45C, symSize: 0x2C }
  - { offsetInCU: 0x1F001, offset: 0x1F001, size: 0x8, addend: 0x0, symName: __ZNSt3__16__treeIiNS_4lessIiEENS_9allocatorIiEEED2Ev, symObjAddr: 0x9F20, symBinAddr: 0x10000C488, symSize: 0x38 }
  - { offsetInCU: 0x1F02D, offset: 0x1F02D, size: 0x8, addend: 0x0, symName: __ZNSt3__16__treeIiNS_4lessIiEENS_9allocatorIiEEE7destroyEPNS_11__tree_nodeIiPvEE, symObjAddr: 0x9F58, symBinAddr: 0x10000C4C0, symSize: 0xC0 }
  - { offsetInCU: 0x1F081, offset: 0x1F081, size: 0x8, addend: 0x0, symName: __ZNKSt3__16__treeIiNS_4lessIiEENS_9allocatorIiEEE6__rootB8ue170006Ev, symObjAddr: 0xA018, symBinAddr: 0x10000C580, symSize: 0x28 }
  - { offsetInCU: 0x1F0A7, offset: 0x1F0A7, size: 0x8, addend: 0x0, symName: __ZNSt3__16__treeIiNS_4lessIiEENS_9allocatorIiEEE12__node_allocB8ue170006Ev, symObjAddr: 0xA040, symBinAddr: 0x10000C5A8, symSize: 0x28 }
  - { offsetInCU: 0x1F0CD, offset: 0x1F0CD, size: 0x8, addend: 0x0, symName: __ZNSt3__116allocator_traitsINS_9allocatorINS_11__tree_nodeIiPvEEEEE7destroyB8ue170006IivvEEvRS5_PT_, symObjAddr: 0xA068, symBinAddr: 0x10000C5D0, symSize: 0x14 }
  - { offsetInCU: 0x1F107, offset: 0x1F107, size: 0x8, addend: 0x0, symName: __ZNSt3__122__tree_key_value_typesIiE9__get_ptrB8ue170006ERi, symObjAddr: 0xA07C, symBinAddr: 0x10000C5E4, symSize: 0x14 }
  - { offsetInCU: 0x1F12B, offset: 0x1F12B, size: 0x8, addend: 0x0, symName: __ZNSt3__116allocator_traitsINS_9allocatorINS_11__tree_nodeIiPvEEEEE10deallocateB8ue170006ERS5_PS4_m, symObjAddr: 0xA090, symBinAddr: 0x10000C5F8, symSize: 0x34 }
  - { offsetInCU: 0x1F16D, offset: 0x1F16D, size: 0x8, addend: 0x0, symName: __ZNSt3__117__compressed_pairINS_15__tree_end_nodeIPNS_16__tree_node_baseIPvEEEENS_9allocatorINS_11__tree_nodeIiS3_EEEEE6secondB8ue170006Ev, symObjAddr: 0xA0C4, symBinAddr: 0x10000C62C, symSize: 0x24 }
  - { offsetInCU: 0x1F193, offset: 0x1F193, size: 0x8, addend: 0x0, symName: __ZNSt3__122__compressed_pair_elemINS_9allocatorINS_11__tree_nodeIiPvEEEELi1ELb1EE5__getB8ue170006Ev, symObjAddr: 0xA0E8, symBinAddr: 0x10000C650, symSize: 0x14 }
  - { offsetInCU: 0x1F1B9, offset: 0x1F1B9, size: 0x8, addend: 0x0, symName: __ZNSt3__19allocatorINS_11__tree_nodeIiPvEEE10deallocateB8ue170006EPS3_m, symObjAddr: 0xA0FC, symBinAddr: 0x10000C664, symSize: 0x70 }
  - { offsetInCU: 0x1F1FB, offset: 0x1F1FB, size: 0x8, addend: 0x0, symName: __ZNKSt3__16__treeIiNS_4lessIiEENS_9allocatorIiEEE10__end_nodeB8ue170006Ev, symObjAddr: 0xA16C, symBinAddr: 0x10000C6D4, symSize: 0x2C }
  - { offsetInCU: 0x1F221, offset: 0x1F221, size: 0x8, addend: 0x0, symName: __ZNKSt3__117__compressed_pairINS_15__tree_end_nodeIPNS_16__tree_node_baseIPvEEEENS_9allocatorINS_11__tree_nodeIiS3_EEEEE5firstB8ue170006Ev, symObjAddr: 0xA198, symBinAddr: 0x10000C700, symSize: 0x24 }
  - { offsetInCU: 0x1F247, offset: 0x1F247, size: 0x8, addend: 0x0, symName: __ZNSt3__16vectorIiNS_9allocatorIiEEED2B8ue170006Ev, symObjAddr: 0xA1BC, symBinAddr: 0x10000C724, symSize: 0x3C }
  - { offsetInCU: 0x1F271, offset: 0x1F271, size: 0x8, addend: 0x0, symName: __ZNSt3__16vectorIiNS_9allocatorIiEEE16__destroy_vectorC1B8ue170006ERS3_, symObjAddr: 0xA1F8, symBinAddr: 0x10000C760, symSize: 0x34 }
  - { offsetInCU: 0x1F2AA, offset: 0x1F2AA, size: 0x8, addend: 0x0, symName: __ZNSt3__16vectorIiNS_9allocatorIiEEE16__destroy_vectorclB8ue170006Ev, symObjAddr: 0xA22C, symBinAddr: 0x10000C794, symSize: 0x90 }
  - { offsetInCU: 0x1F2D0, offset: 0x1F2D0, size: 0x8, addend: 0x0, symName: __ZNSt3__16vectorIiNS_9allocatorIiEEE16__destroy_vectorC2B8ue170006ERS3_, symObjAddr: 0xA2BC, symBinAddr: 0x10000C824, symSize: 0x20 }
  - { offsetInCU: 0x1F309, offset: 0x1F309, size: 0x8, addend: 0x0, symName: __ZNSt3__16vectorIiNS_9allocatorIiEEE7__clearB8ue170006Ev, symObjAddr: 0xA2DC, symBinAddr: 0x10000C844, symSize: 0x28 }
  - { offsetInCU: 0x1F32F, offset: 0x1F32F, size: 0x8, addend: 0x0, symName: __ZNKSt3__16vectorIiNS_9allocatorIiEEE17__annotate_deleteB8ue170006Ev, symObjAddr: 0xA304, symBinAddr: 0x10000C86C, symSize: 0xB8 }
  - { offsetInCU: 0x1F355, offset: 0x1F355, size: 0x8, addend: 0x0, symName: __ZNSt3__16vectorIiNS_9allocatorIiEEE7__allocB8ue170006Ev, symObjAddr: 0xA3BC, symBinAddr: 0x10000C924, symSize: 0x28 }
  - { offsetInCU: 0x1F37B, offset: 0x1F37B, size: 0x8, addend: 0x0, symName: __ZNKSt3__16vectorIiNS_9allocatorIiEEE8capacityB8ue170006Ev, symObjAddr: 0xA3E4, symBinAddr: 0x10000C94C, symSize: 0x40 }
  - { offsetInCU: 0x1F3A1, offset: 0x1F3A1, size: 0x8, addend: 0x0, symName: __ZNSt3__16vectorIiNS_9allocatorIiEEE22__base_destruct_at_endB8ue170006EPi, symObjAddr: 0xA424, symBinAddr: 0x10000C98C, symSize: 0xA0 }
  - { offsetInCU: 0x1F3E5, offset: 0x1F3E5, size: 0x8, addend: 0x0, symName: __ZNKSt3__16vectorIiNS_9allocatorIiEEE31__annotate_contiguous_containerB8ue170006EPKvS5_S5_S5_, symObjAddr: 0xA4C4, symBinAddr: 0x10000CA2C, symSize: 0x20 }
  - { offsetInCU: 0x1F437, offset: 0x1F437, size: 0x8, addend: 0x0, symName: __ZNKSt3__16vectorIiNS_9allocatorIiEEE4dataB8ue170006Ev, symObjAddr: 0xA4E4, symBinAddr: 0x10000CA4C, symSize: 0x28 }
  - { offsetInCU: 0x1F45D, offset: 0x1F45D, size: 0x8, addend: 0x0, symName: __ZNKSt3__16vectorIiNS_9allocatorIiEEE4sizeB8ue170006Ev, symObjAddr: 0xA50C, symBinAddr: 0x10000CA74, symSize: 0x28 }
  - { offsetInCU: 0x1F483, offset: 0x1F483, size: 0x8, addend: 0x0, symName: __ZNSt3__117__compressed_pairIPiNS_9allocatorIiEEE6secondB8ue170006Ev, symObjAddr: 0xA534, symBinAddr: 0x10000CA9C, symSize: 0x24 }
  - { offsetInCU: 0x1F4A9, offset: 0x1F4A9, size: 0x8, addend: 0x0, symName: __ZNKSt3__16vectorIiNS_9allocatorIiEEE9__end_capB8ue170006Ev, symObjAddr: 0xA558, symBinAddr: 0x10000CAC0, symSize: 0x28 }
  - { offsetInCU: 0x1F4CF, offset: 0x1F4CF, size: 0x8, addend: 0x0, symName: __ZNKSt3__117__compressed_pairIPiNS_9allocatorIiEEE5firstB8ue170006Ev, symObjAddr: 0xA580, symBinAddr: 0x10000CAE8, symSize: 0x24 }
  - { offsetInCU: 0x1F4F5, offset: 0x1F4F5, size: 0x8, addend: 0x0, symName: __ZNKSt3__122__compressed_pair_elemIPiLi0ELb0EE5__getB8ue170006Ev, symObjAddr: 0xA5A4, symBinAddr: 0x10000CB0C, symSize: 0x14 }
  - { offsetInCU: 0x1F51B, offset: 0x1F51B, size: 0x8, addend: 0x0, symName: __ZNSt3__16vectorIiNS_9allocatorIiEEE8__appendEmRKi, symObjAddr: 0xA5B8, symBinAddr: 0x10000CB20, symSize: 0x11C }
  - { offsetInCU: 0x1F585, offset: 0x1F585, size: 0x8, addend: 0x0, symName: __ZNSt3__16vectorIiNS_9allocatorIiEEE17__destruct_at_endB8ue170006EPi, symObjAddr: 0xA6D4, symBinAddr: 0x10000CC3C, symSize: 0x4C }
  - { offsetInCU: 0x1F5C9, offset: 0x1F5C9, size: 0x8, addend: 0x0, symName: __ZNSt3__16vectorIiNS_9allocatorIiEEE9__end_capB8ue170006Ev, symObjAddr: 0xA720, symBinAddr: 0x10000CC88, symSize: 0x28 }
  - { offsetInCU: 0x1F5EF, offset: 0x1F5EF, size: 0x8, addend: 0x0, symName: __ZNSt3__16vectorIiNS_9allocatorIiEEE18__construct_at_endEmRKi, symObjAddr: 0xA748, symBinAddr: 0x10000CCB0, symSize: 0xD8 }
  - { offsetInCU: 0x1F670, offset: 0x1F670, size: 0x8, addend: 0x0, symName: __ZNKSt3__16vectorIiNS_9allocatorIiEEE11__recommendB8ue170006Em, symObjAddr: 0xA820, symBinAddr: 0x10000CD88, symSize: 0xB4 }
  - { offsetInCU: 0x1F6C5, offset: 0x1F6C5, size: 0x8, addend: 0x0, symName: __ZNSt3__114__split_bufferIiRNS_9allocatorIiEEEC1EmmS3_, symObjAddr: 0xA8D4, symBinAddr: 0x10000CE3C, symSize: 0x44 }
  - { offsetInCU: 0x1F71B, offset: 0x1F71B, size: 0x8, addend: 0x0, symName: __ZNSt3__114__split_bufferIiRNS_9allocatorIiEEE18__construct_at_endEmRKi, symObjAddr: 0xA918, symBinAddr: 0x10000CE80, symSize: 0xC4 }
  - { offsetInCU: 0x1F76E, offset: 0x1F76E, size: 0x8, addend: 0x0, symName: __ZNSt3__114__split_bufferIiRNS_9allocatorIiEEED1Ev, symObjAddr: 0xAAEC, symBinAddr: 0x10000D054, symSize: 0x2C }
  - { offsetInCU: 0x1F79A, offset: 0x1F79A, size: 0x8, addend: 0x0, symName: __ZNSt3__117__compressed_pairIPiNS_9allocatorIiEEE5firstB8ue170006Ev, symObjAddr: 0xAB18, symBinAddr: 0x10000D080, symSize: 0x24 }
  - { offsetInCU: 0x1F7C0, offset: 0x1F7C0, size: 0x8, addend: 0x0, symName: __ZNSt3__122__compressed_pair_elemIPiLi0ELb0EE5__getB8ue170006Ev, symObjAddr: 0xAB3C, symBinAddr: 0x10000D0A4, symSize: 0x14 }
  - { offsetInCU: 0x1F7FF, offset: 0x1F7FF, size: 0x8, addend: 0x0, symName: __ZNSt3__16vectorIiNS_9allocatorIiEEE21_ConstructTransactionC1B8ue170006ERS3_m, symObjAddr: 0xAB50, symBinAddr: 0x10000D0B8, symSize: 0x3C }
  - { offsetInCU: 0x1F847, offset: 0x1F847, size: 0x8, addend: 0x0, symName: __ZNSt3__116allocator_traitsINS_9allocatorIiEEE9constructB8ue170006IiJRKiEvEEvRS2_PT_DpOT0_, symObjAddr: 0xAB8C, symBinAddr: 0x10000D0F4, symSize: 0x34 }
  - { offsetInCU: 0x1F89E, offset: 0x1F89E, size: 0x8, addend: 0x0, symName: __ZNSt3__16vectorIiNS_9allocatorIiEEE21_ConstructTransactionD1B8ue170006Ev, symObjAddr: 0xABC0, symBinAddr: 0x10000D128, symSize: 0x2C }
  - { offsetInCU: 0x1F8C8, offset: 0x1F8C8, size: 0x8, addend: 0x0, symName: __ZNSt3__16vectorIiNS_9allocatorIiEEE21_ConstructTransactionC2B8ue170006ERS3_m, symObjAddr: 0xABEC, symBinAddr: 0x10000D154, symSize: 0x44 }
  - { offsetInCU: 0x1F910, offset: 0x1F910, size: 0x8, addend: 0x0, symName: __ZNSt3__19allocatorIiE9constructB8ue170006IiJRKiEEEvPT_DpOT0_, symObjAddr: 0xAC30, symBinAddr: 0x10000D198, symSize: 0x28 }
  - { offsetInCU: 0x1F966, offset: 0x1F966, size: 0x8, addend: 0x0, symName: __ZNSt3__16vectorIiNS_9allocatorIiEEE21_ConstructTransactionD2B8ue170006Ev, symObjAddr: 0xAC58, symBinAddr: 0x10000D1C0, symSize: 0x20 }
  - { offsetInCU: 0x1F990, offset: 0x1F990, size: 0x8, addend: 0x0, symName: __ZNKSt3__16vectorIiNS_9allocatorIiEEE8max_sizeEv, symObjAddr: 0xAC78, symBinAddr: 0x10000D1E0, symSize: 0x74 }
  - { offsetInCU: 0x1F9B8, offset: 0x1F9B8, size: 0x8, addend: 0x0, symName: __ZNKSt3__16vectorIiNS_9allocatorIiEEE20__throw_length_errorB8ue170006Ev, symObjAddr: 0xACEC, symBinAddr: 0x10000D254, symSize: 0x1C }
  - { offsetInCU: 0x1F9E8, offset: 0x1F9E8, size: 0x8, addend: 0x0, symName: __ZNSt3__116allocator_traitsINS_9allocatorIiEEE8max_sizeB8ue170006IS2_vEEmRKS2_, symObjAddr: 0xAD08, symBinAddr: 0x10000D270, symSize: 0x24 }
  - { offsetInCU: 0x1FA16, offset: 0x1FA16, size: 0x8, addend: 0x0, symName: __ZNKSt3__16vectorIiNS_9allocatorIiEEE7__allocB8ue170006Ev, symObjAddr: 0xAD2C, symBinAddr: 0x10000D294, symSize: 0x28 }
  - { offsetInCU: 0x1FA3C, offset: 0x1FA3C, size: 0x8, addend: 0x0, symName: __ZNKSt3__19allocatorIiE8max_sizeB8ue170006Ev, symObjAddr: 0xAD54, symBinAddr: 0x10000D2BC, symSize: 0x14 }
  - { offsetInCU: 0x1FA62, offset: 0x1FA62, size: 0x8, addend: 0x0, symName: __ZNKSt3__117__compressed_pairIPiNS_9allocatorIiEEE6secondB8ue170006Ev, symObjAddr: 0xAD68, symBinAddr: 0x10000D2D0, symSize: 0x24 }
  - { offsetInCU: 0x1FA88, offset: 0x1FA88, size: 0x8, addend: 0x0, symName: __ZNKSt3__122__compressed_pair_elemINS_9allocatorIiEELi1ELb1EE5__getB8ue170006Ev, symObjAddr: 0xAD8C, symBinAddr: 0x10000D2F4, symSize: 0x14 }
  - { offsetInCU: 0x1FAAE, offset: 0x1FAAE, size: 0x8, addend: 0x0, symName: __ZNSt3__114__split_bufferIiRNS_9allocatorIiEEEC2EmmS3_, symObjAddr: 0xADA0, symBinAddr: 0x10000D308, symSize: 0xD4 }
  - { offsetInCU: 0x1FB21, offset: 0x1FB21, size: 0x8, addend: 0x0, symName: __ZNSt3__117__compressed_pairIPiRNS_9allocatorIiEEEC1B8ue170006IDnS4_EEOT_OT0_, symObjAddr: 0xAE74, symBinAddr: 0x10000D3DC, symSize: 0x3C }
  - { offsetInCU: 0x1FB79, offset: 0x1FB79, size: 0x8, addend: 0x0, symName: __ZNSt3__114__split_bufferIiRNS_9allocatorIiEEE7__allocB8ue170006Ev, symObjAddr: 0xAEF0, symBinAddr: 0x10000D458, symSize: 0x28 }
  - { offsetInCU: 0x1FB9F, offset: 0x1FB9F, size: 0x8, addend: 0x0, symName: __ZNSt3__114__split_bufferIiRNS_9allocatorIiEEE9__end_capB8ue170006Ev, symObjAddr: 0xAF18, symBinAddr: 0x10000D480, symSize: 0x28 }
  - { offsetInCU: 0x1FBC5, offset: 0x1FBC5, size: 0x8, addend: 0x0, symName: __ZNSt3__117__compressed_pairIPiRNS_9allocatorIiEEEC2B8ue170006IDnS4_EEOT_OT0_, symObjAddr: 0xAF40, symBinAddr: 0x10000D4A8, symSize: 0x48 }
  - { offsetInCU: 0x1FC1D, offset: 0x1FC1D, size: 0x8, addend: 0x0, symName: __ZNSt3__122__compressed_pair_elemIRNS_9allocatorIiEELi1ELb0EEC2B8ue170006IS3_vEEOT_, symObjAddr: 0xAF88, symBinAddr: 0x10000D4F0, symSize: 0x20 }
  - { offsetInCU: 0x1FC5F, offset: 0x1FC5F, size: 0x8, addend: 0x0, symName: __ZNSt3__19allocatorIiE8allocateB8ue170006Em, symObjAddr: 0xAFA8, symBinAddr: 0x10000D510, symSize: 0x84 }
  - { offsetInCU: 0x1FC93, offset: 0x1FC93, size: 0x8, addend: 0x0, symName: __ZNSt3__117__compressed_pairIPiRNS_9allocatorIiEEE6secondB8ue170006Ev, symObjAddr: 0xB02C, symBinAddr: 0x10000D594, symSize: 0x28 }
  - { offsetInCU: 0x1FCB9, offset: 0x1FCB9, size: 0x8, addend: 0x0, symName: __ZNSt3__122__compressed_pair_elemIRNS_9allocatorIiEELi1ELb0EE5__getB8ue170006Ev, symObjAddr: 0xB054, symBinAddr: 0x10000D5BC, symSize: 0x18 }
  - { offsetInCU: 0x1FCDF, offset: 0x1FCDF, size: 0x8, addend: 0x0, symName: __ZNSt3__117__compressed_pairIPiRNS_9allocatorIiEEE5firstB8ue170006Ev, symObjAddr: 0xB06C, symBinAddr: 0x10000D5D4, symSize: 0x24 }
  - { offsetInCU: 0x1FD0F, offset: 0x1FD0F, size: 0x8, addend: 0x0, symName: __ZNSt3__114__split_bufferIiRNS_9allocatorIiEEE21_ConstructTransactionC1B8ue170006EPPim, symObjAddr: 0xB090, symBinAddr: 0x10000D5F8, symSize: 0x3C }
  - { offsetInCU: 0x1FD55, offset: 0x1FD55, size: 0x8, addend: 0x0, symName: __ZNSt3__114__split_bufferIiRNS_9allocatorIiEEE21_ConstructTransactionD1B8ue170006Ev, symObjAddr: 0xB0CC, symBinAddr: 0x10000D634, symSize: 0x2C }
  - { offsetInCU: 0x1FD7F, offset: 0x1FD7F, size: 0x8, addend: 0x0, symName: __ZNSt3__114__split_bufferIiRNS_9allocatorIiEEE21_ConstructTransactionC2B8ue170006EPPim, symObjAddr: 0xB0F8, symBinAddr: 0x10000D660, symSize: 0x44 }
  - { offsetInCU: 0x1FDC5, offset: 0x1FDC5, size: 0x8, addend: 0x0, symName: __ZNSt3__114__split_bufferIiRNS_9allocatorIiEEE21_ConstructTransactionD2B8ue170006Ev, symObjAddr: 0xB13C, symBinAddr: 0x10000D6A4, symSize: 0x20 }
  - { offsetInCU: 0x1FDEF, offset: 0x1FDEF, size: 0x8, addend: 0x0, symName: __ZNSt3__116reverse_iteratorIPiEC1B8ue170006ES1_, symObjAddr: 0xB244, symBinAddr: 0x10000D7AC, symSize: 0x34 }
  - { offsetInCU: 0x1FE27, offset: 0x1FE27, size: 0x8, addend: 0x0, symName: __ZNKSt3__116reverse_iteratorIPiE4baseB8ue170006Ev, symObjAddr: 0xB278, symBinAddr: 0x10000D7E0, symSize: 0x18 }
  - { offsetInCU: 0x1FE4D, offset: 0x1FE4D, size: 0x8, addend: 0x0, symName: __ZNKSt3__16vectorIiNS_9allocatorIiEEE14__annotate_newB8ue170006Em, symObjAddr: 0xB2CC, symBinAddr: 0x10000D834, symSize: 0xAC }
  - { offsetInCU: 0x1FE82, offset: 0x1FE82, size: 0x8, addend: 0x0, symName: __ZNKSt3__116reverse_iteratorIPiEdeB8ue170006Ev, symObjAddr: 0xB410, symBinAddr: 0x10000D978, symSize: 0x28 }
  - { offsetInCU: 0x1FEB6, offset: 0x1FEB6, size: 0x8, addend: 0x0, symName: __ZNSt3__116reverse_iteratorIPiEppB8ue170006Ev, symObjAddr: 0xB438, symBinAddr: 0x10000D9A0, symSize: 0x20 }
  - { offsetInCU: 0x1FEE1, offset: 0x1FEE1, size: 0x8, addend: 0x0, symName: __ZNSt3__119__to_address_helperINS_16reverse_iteratorIPiEEvE6__callB8ue170006ERKS3_, symObjAddr: 0xB4D0, symBinAddr: 0x10000DA38, symSize: 0x4C }
  - { offsetInCU: 0x1FF04, offset: 0x1FF04, size: 0x8, addend: 0x0, symName: __ZNKSt3__116reverse_iteratorIPiEptB8ue170006Ev, symObjAddr: 0xB51C, symBinAddr: 0x10000DA84, symSize: 0x24 }
  - { offsetInCU: 0x1FF4E, offset: 0x1FF4E, size: 0x8, addend: 0x0, symName: __ZNKSt3__111__move_loopINS_17_ClassicAlgPolicyEEclB8ue170006INS_16reverse_iteratorIPiEES6_S6_EENS_4pairIT_T1_EES8_T0_S9_, symObjAddr: 0xB7B8, symBinAddr: 0x10000DD20, symSize: 0xA0 }
  - { offsetInCU: 0x1FFB9, offset: 0x1FFB9, size: 0x8, addend: 0x0, symName: __ZNSt3__18_IterOpsINS_17_ClassicAlgPolicyEE11__iter_moveB8ue170006IRNS_16reverse_iteratorIPiEEEENS_9enable_ifIXsr12is_referenceIDTdeclsr3stdE7declvalIRT_EEEEE5valueEDTclsr3stdE4movedeclsr3stdE7declvalISA_EEEEE4typeEOS9_, symObjAddr: 0xB9B8, symBinAddr: 0x10000DF20, symSize: 0x28 }
  - { offsetInCU: 0x1FFE5, offset: 0x1FFE5, size: 0x8, addend: 0x0, symName: __ZNSt3__18_IterOpsINS_17_ClassicAlgPolicyEE25__validate_iter_referenceB8ue170006IRNS_16reverse_iteratorIPiEEEEvv, symObjAddr: 0xB9E0, symBinAddr: 0x10000DF48, symSize: 0x4 }
  - { offsetInCU: 0x20003, offset: 0x20003, size: 0x8, addend: 0x0, symName: __ZNSt3__118__unwrap_iter_implINS_16reverse_iteratorIPiEELb0EE8__unwrapB8ue170006ES3_, symObjAddr: 0xB9E4, symBinAddr: 0x10000DF4C, symSize: 0x24 }
  - { offsetInCU: 0x20026, offset: 0x20026, size: 0x8, addend: 0x0, symName: __ZNSt3__14pairINS_16reverse_iteratorIPiEES3_EC1B8ue170006ERKS3_S6_, symObjAddr: 0xBA08, symBinAddr: 0x10000DF70, symSize: 0x3C }
  - { offsetInCU: 0x2006C, offset: 0x2006C, size: 0x8, addend: 0x0, symName: __ZNSt3__14pairINS_16reverse_iteratorIPiEES3_EC2B8ue170006ERKS3_S6_, symObjAddr: 0xBA44, symBinAddr: 0x10000DFAC, symSize: 0x34 }
  - { offsetInCU: 0x200B2, offset: 0x200B2, size: 0x8, addend: 0x0, symName: __ZNSt3__118__unwrap_iter_implINS_16reverse_iteratorIPiEELb0EE8__rewrapB8ue170006ES3_S3_, symObjAddr: 0xBA78, symBinAddr: 0x10000DFE0, symSize: 0x2C }
  - { offsetInCU: 0x200DF, offset: 0x200DF, size: 0x8, addend: 0x0, symName: __ZNSt3__116reverse_iteratorIPiEC2B8ue170006ES1_, symObjAddr: 0xBAA4, symBinAddr: 0x10000E00C, symSize: 0x28 }
  - { offsetInCU: 0x20117, offset: 0x20117, size: 0x8, addend: 0x0, symName: __ZNSt3__114__split_bufferIiRNS_9allocatorIiEEED2Ev, symObjAddr: 0xBACC, symBinAddr: 0x10000E034, symSize: 0x80 }
  - { offsetInCU: 0x20143, offset: 0x20143, size: 0x8, addend: 0x0, symName: __ZNSt3__114__split_bufferIiRNS_9allocatorIiEEE5clearB8ue170006Ev, symObjAddr: 0xBB4C, symBinAddr: 0x10000E0B4, symSize: 0x28 }
  - { offsetInCU: 0x20169, offset: 0x20169, size: 0x8, addend: 0x0, symName: __ZNKSt3__114__split_bufferIiRNS_9allocatorIiEEE8capacityB8ue170006Ev, symObjAddr: 0xBB74, symBinAddr: 0x10000E0DC, symSize: 0x40 }
  - { offsetInCU: 0x2018F, offset: 0x2018F, size: 0x8, addend: 0x0, symName: __ZNSt3__114__split_bufferIiRNS_9allocatorIiEEE17__destruct_at_endB8ue170006EPi, symObjAddr: 0xBBB4, symBinAddr: 0x10000E11C, symSize: 0x2C }
  - { offsetInCU: 0x201C3, offset: 0x201C3, size: 0x8, addend: 0x0, symName: __ZNSt3__114__split_bufferIiRNS_9allocatorIiEEE17__destruct_at_endB8ue170006EPiNS_17integral_constantIbLb0EEE, symObjAddr: 0xBBE0, symBinAddr: 0x10000E148, symSize: 0x94 }
  - { offsetInCU: 0x20203, offset: 0x20203, size: 0x8, addend: 0x0, symName: __ZNKSt3__114__split_bufferIiRNS_9allocatorIiEEE9__end_capB8ue170006Ev, symObjAddr: 0xBC74, symBinAddr: 0x10000E1DC, symSize: 0x28 }
  - { offsetInCU: 0x20229, offset: 0x20229, size: 0x8, addend: 0x0, symName: __ZNKSt3__117__compressed_pairIPiRNS_9allocatorIiEEE5firstB8ue170006Ev, symObjAddr: 0xBC9C, symBinAddr: 0x10000E204, symSize: 0x24 }
  - { offsetInCU: 0x2024F, offset: 0x2024F, size: 0x8, addend: 0x0, symName: __ZNKSt3__16vectorIiNS_9allocatorIiEEE17__annotate_shrinkB8ue170006Em, symObjAddr: 0xBCC0, symBinAddr: 0x10000E228, symSize: 0xB4 }
  - { offsetInCU: 0x20284, offset: 0x20284, size: 0x8, addend: 0x0, symName: __ZNSt3__15queueI4NodoNS_5dequeIS1_NS_9allocatorIS1_EEEEEC2B8ue170006Ev, symObjAddr: 0xBD74, symBinAddr: 0x10000E2DC, symSize: 0x2C }
  - { offsetInCU: 0x202AE, offset: 0x202AE, size: 0x8, addend: 0x0, symName: __ZNSt3__15dequeI4NodoNS_9allocatorIS1_EEEC1B8ue170006Ev, symObjAddr: 0xBDA0, symBinAddr: 0x10000E308, symSize: 0x2C }
  - { offsetInCU: 0x202D8, offset: 0x202D8, size: 0x8, addend: 0x0, symName: __ZNSt3__15dequeI4NodoNS_9allocatorIS1_EEEC2B8ue170006Ev, symObjAddr: 0xBDCC, symBinAddr: 0x10000E334, symSize: 0x84 }
  - { offsetInCU: 0x20302, offset: 0x20302, size: 0x8, addend: 0x0, symName: __ZNSt3__114__split_bufferIP4NodoNS_9allocatorIS2_EEEC1B8ue170006Ev, symObjAddr: 0xBE50, symBinAddr: 0x10000E3B8, symSize: 0x2C }
  - { offsetInCU: 0x2032C, offset: 0x2032C, size: 0x8, addend: 0x0, symName: __ZNSt3__117__compressed_pairImNS_9allocatorI4NodoEEEC1B8ue170006IiNS_18__default_init_tagEEEOT_OT0_, symObjAddr: 0xBE7C, symBinAddr: 0x10000E3E4, symSize: 0x3C }
  - { offsetInCU: 0x20384, offset: 0x20384, size: 0x8, addend: 0x0, symName: __ZNSt3__114__split_bufferIP4NodoNS_9allocatorIS2_EEEC2B8ue170006Ev, symObjAddr: 0xBEB8, symBinAddr: 0x10000E420, symSize: 0x48 }
  - { offsetInCU: 0x203AE, offset: 0x203AE, size: 0x8, addend: 0x0, symName: __ZNSt3__117__compressed_pairIPP4NodoNS_9allocatorIS2_EEEC1B8ue170006IDnNS_18__default_init_tagEEEOT_OT0_, symObjAddr: 0xBF00, symBinAddr: 0x10000E468, symSize: 0x3C }
  - { offsetInCU: 0x20406, offset: 0x20406, size: 0x8, addend: 0x0, symName: __ZNSt3__117__compressed_pairIPP4NodoNS_9allocatorIS2_EEEC2B8ue170006IDnNS_18__default_init_tagEEEOT_OT0_, symObjAddr: 0xBF3C, symBinAddr: 0x10000E4A4, symSize: 0x40 }
  - { offsetInCU: 0x2045E, offset: 0x2045E, size: 0x8, addend: 0x0, symName: __ZNSt3__122__compressed_pair_elemIPP4NodoLi0ELb0EEC2B8ue170006IDnvEEOT_, symObjAddr: 0xBF7C, symBinAddr: 0x10000E4E4, symSize: 0x1C }
  - { offsetInCU: 0x204A0, offset: 0x204A0, size: 0x8, addend: 0x0, symName: __ZNSt3__122__compressed_pair_elemINS_9allocatorIP4NodoEELi1ELb1EEC2B8ue170006ENS_18__default_init_tagE, symObjAddr: 0xBF98, symBinAddr: 0x10000E500, symSize: 0x2C }
  - { offsetInCU: 0x204D4, offset: 0x204D4, size: 0x8, addend: 0x0, symName: __ZNSt3__19allocatorIP4NodoEC2B8ue170006Ev, symObjAddr: 0xBFC4, symBinAddr: 0x10000E52C, symSize: 0x2C }
  - { offsetInCU: 0x204FE, offset: 0x204FE, size: 0x8, addend: 0x0, symName: __ZNSt3__116__non_trivial_ifILb1ENS_9allocatorIP4NodoEEEC2B8ue170006Ev, symObjAddr: 0xBFF0, symBinAddr: 0x10000E558, symSize: 0x14 }
  - { offsetInCU: 0x20528, offset: 0x20528, size: 0x8, addend: 0x0, symName: __ZNSt3__117__compressed_pairImNS_9allocatorI4NodoEEEC2B8ue170006IiNS_18__default_init_tagEEEOT_OT0_, symObjAddr: 0xC004, symBinAddr: 0x10000E56C, symSize: 0x40 }
  - { offsetInCU: 0x20580, offset: 0x20580, size: 0x8, addend: 0x0, symName: __ZNSt3__15dequeI4NodoNS_9allocatorIS1_EEE9push_backERKS1_, symObjAddr: 0xC044, symBinAddr: 0x10000E5AC, symSize: 0xAC }
  - { offsetInCU: 0x205C6, offset: 0x205C6, size: 0x8, addend: 0x0, symName: __ZNKSt3__15dequeI4NodoNS_9allocatorIS1_EEE12__back_spareB8ue170006Ev, symObjAddr: 0xC0F0, symBinAddr: 0x10000E658, symSize: 0x54 }
  - { offsetInCU: 0x205EC, offset: 0x205EC, size: 0x8, addend: 0x0, symName: __ZNSt3__15dequeI4NodoNS_9allocatorIS1_EEE19__add_back_capacityEv, symObjAddr: 0xC144, symBinAddr: 0x10000E6AC, symSize: 0x364 }
  - { offsetInCU: 0x206A1, offset: 0x206A1, size: 0x8, addend: 0x0, symName: __ZNKSt3__15dequeI4NodoNS_9allocatorIS1_EEE24__annotate_increase_backB8ue170006Em, symObjAddr: 0xC4A8, symBinAddr: 0x10000EA10, symSize: 0x7C }
  - { offsetInCU: 0x206D6, offset: 0x206D6, size: 0x8, addend: 0x0, symName: __ZNSt3__116allocator_traitsINS_9allocatorI4NodoEEE9constructB8ue170006IS2_JRKS2_EvEEvRS3_PT_DpOT0_, symObjAddr: 0xC524, symBinAddr: 0x10000EA8C, symSize: 0x34 }
  - { offsetInCU: 0x2072D, offset: 0x2072D, size: 0x8, addend: 0x0, symName: __ZNKSt3__15dequeI4NodoNS_9allocatorIS1_EEE10__capacityB8ue170006Ev, symObjAddr: 0xC558, symBinAddr: 0x10000EAC0, symSize: 0x64 }
  - { offsetInCU: 0x20753, offset: 0x20753, size: 0x8, addend: 0x0, symName: __ZNKSt3__15dequeI4NodoNS_9allocatorIS1_EEE13__front_spareB8ue170006Ev, symObjAddr: 0xC5BC, symBinAddr: 0x10000EB24, symSize: 0x18 }
  - { offsetInCU: 0x20779, offset: 0x20779, size: 0x8, addend: 0x0, symName: __ZNSt3__114__split_bufferIP4NodoNS_9allocatorIS2_EEE9push_backB8ue170006ERKS2_, symObjAddr: 0xC5D4, symBinAddr: 0x10000EB3C, symSize: 0x270 }
  - { offsetInCU: 0x207F1, offset: 0x207F1, size: 0x8, addend: 0x0, symName: __ZNKSt3__114__split_bufferIP4NodoNS_9allocatorIS2_EEE12__back_spareB8ue170006Ev, symObjAddr: 0xC844, symBinAddr: 0x10000EDAC, symSize: 0x40 }
  - { offsetInCU: 0x20817, offset: 0x20817, size: 0x8, addend: 0x0, symName: __ZNSt3__114__split_bufferIP4NodoNS_9allocatorIS2_EEE9push_backEOS2_, symObjAddr: 0xC884, symBinAddr: 0x10000EDEC, symSize: 0x270 }
  - { offsetInCU: 0x2088F, offset: 0x2088F, size: 0x8, addend: 0x0, symName: __ZNSt3__116allocator_traitsINS_9allocatorI4NodoEEE8allocateB8ue170006ERS3_m, symObjAddr: 0xCAF4, symBinAddr: 0x10000F05C, symSize: 0x2C }
  - { offsetInCU: 0x208C2, offset: 0x208C2, size: 0x8, addend: 0x0, symName: __ZNSt3__114__split_bufferIP4NodoNS_9allocatorIS2_EEE10push_frontEOS2_, symObjAddr: 0xCB20, symBinAddr: 0x10000F088, symSize: 0x26C }
  - { offsetInCU: 0x2093A, offset: 0x2093A, size: 0x8, addend: 0x0, symName: __ZNSt3__114__split_bufferIP4NodoRNS_9allocatorIS2_EEEC1EmmS5_, symObjAddr: 0xCD8C, symBinAddr: 0x10000F2F4, symSize: 0x44 }
  - { offsetInCU: 0x20995, offset: 0x20995, size: 0x8, addend: 0x0, symName: __ZNSt3__122__allocator_destructorINS_9allocatorI4NodoEEEC1B8ue170006ERS3_m, symObjAddr: 0xCDD0, symBinAddr: 0x10000F338, symSize: 0x3C }
  - { offsetInCU: 0x20A4B, offset: 0x20A4B, size: 0x8, addend: 0x0, symName: __ZNSt3__110unique_ptrIP4NodoNS_22__allocator_destructorINS_9allocatorIS1_EEEEEC1B8ue170006ILb1EvEES2_NS_16__dependent_typeINS_27__unique_ptr_deleter_sfinaeIS6_EEXT_EE20__good_rval_ref_typeE, symObjAddr: 0xCE0C, symBinAddr: 0x10000F374, symSize: 0x3C }
  - { offsetInCU: 0x20A9C, offset: 0x20A9C, size: 0x8, addend: 0x0, symName: __ZNSt3__114__split_bufferIP4NodoRNS_9allocatorIS2_EEE9push_backEOS2_, symObjAddr: 0xCE48, symBinAddr: 0x10000F3B0, symSize: 0x270 }
  - { offsetInCU: 0x20B14, offset: 0x20B14, size: 0x8, addend: 0x0, symName: __ZNKSt3__110unique_ptrIP4NodoNS_22__allocator_destructorINS_9allocatorIS1_EEEEE3getB8ue170006Ev, symObjAddr: 0xD0B8, symBinAddr: 0x10000F620, symSize: 0x28 }
  - { offsetInCU: 0x20B3A, offset: 0x20B3A, size: 0x8, addend: 0x0, symName: __ZNSt3__110unique_ptrIP4NodoNS_22__allocator_destructorINS_9allocatorIS1_EEEEE7releaseB8ue170006Ev, symObjAddr: 0xD0E0, symBinAddr: 0x10000F648, symSize: 0x44 }
  - { offsetInCU: 0x20B6F, offset: 0x20B6F, size: 0x8, addend: 0x0, symName: __ZNSt3__114__split_bufferIP4NodoRNS_9allocatorIS2_EEE10push_frontERKS2_, symObjAddr: 0xD124, symBinAddr: 0x10000F68C, symSize: 0x26C }
  - { offsetInCU: 0x20BE7, offset: 0x20BE7, size: 0x8, addend: 0x0, symName: __ZNSt3__114__split_bufferIP4NodoNS_9allocatorIS2_EEE9__end_capB8ue170006Ev, symObjAddr: 0xD3CC, symBinAddr: 0x10000F934, symSize: 0x28 }
  - { offsetInCU: 0x20C0D, offset: 0x20C0D, size: 0x8, addend: 0x0, symName: __ZNSt3__114__split_bufferIP4NodoRNS_9allocatorIS2_EEE9__end_capB8ue170006Ev, symObjAddr: 0xD3F4, symBinAddr: 0x10000F95C, symSize: 0x28 }
  - { offsetInCU: 0x20C33, offset: 0x20C33, size: 0x8, addend: 0x0, symName: __ZNSt3__110unique_ptrIP4NodoNS_22__allocator_destructorINS_9allocatorIS1_EEEEED1B8ue170006Ev, symObjAddr: 0xD41C, symBinAddr: 0x10000F984, symSize: 0x2C }
  - { offsetInCU: 0x20C5D, offset: 0x20C5D, size: 0x8, addend: 0x0, symName: __ZNSt3__114__split_bufferIP4NodoRNS_9allocatorIS2_EEED1Ev, symObjAddr: 0xD448, symBinAddr: 0x10000F9B0, symSize: 0x2C }
  - { offsetInCU: 0x20C89, offset: 0x20C89, size: 0x8, addend: 0x0, symName: __ZNSt3__114__split_bufferIP4NodoRNS_9allocatorIS2_EEE18__construct_at_endINS_13move_iteratorIPS2_EEEENS_9enable_ifIXsr31__has_forward_iterator_categoryIT_EE5valueEvE4typeESC_SC_, symObjAddr: 0xD4B4, symBinAddr: 0x10000FA1C, symSize: 0x60 }
  - { offsetInCU: 0x20CD6, offset: 0x20CD6, size: 0x8, addend: 0x0, symName: __ZNSt3__113move_iteratorIPP4NodoEC1B8ue170006ES3_, symObjAddr: 0xD514, symBinAddr: 0x10000FA7C, symSize: 0x34 }
  - { offsetInCU: 0x20D0E, offset: 0x20D0E, size: 0x8, addend: 0x0, symName: __ZNSt3__116allocator_traitsINS_9allocatorIP4NodoEEE9constructB8ue170006IS3_JRKS3_EvEEvRS4_PT_DpOT0_, symObjAddr: 0xD548, symBinAddr: 0x10000FAB0, symSize: 0x34 }
  - { offsetInCU: 0x20D89, offset: 0x20D89, size: 0x8, addend: 0x0, symName: __ZNKSt3__114__move_trivialclB8ue170006IP4NodoS3_Li0EEENS_4pairIPT_PT0_EES6_S6_S8_, symObjAddr: 0xD718, symBinAddr: 0x10000FC80, symSize: 0x48 }
  - { offsetInCU: 0x20DF1, offset: 0x20DF1, size: 0x8, addend: 0x0, symName: __ZNSt3__14pairIPP4NodoS3_EC1B8ue170006ERKS3_S6_, symObjAddr: 0xD990, symBinAddr: 0x10000FEF8, symSize: 0x3C }
  - { offsetInCU: 0x20E37, offset: 0x20E37, size: 0x8, addend: 0x0, symName: __ZNSt3__14pairIPP4NodoS3_EC2B8ue170006ERKS3_S6_, symObjAddr: 0xD9CC, symBinAddr: 0x10000FF34, symSize: 0x34 }
  - { offsetInCU: 0x20E7D, offset: 0x20E7D, size: 0x8, addend: 0x0, symName: __ZNSt3__118__unwrap_iter_implIPP4NodoLb1EE8__unwrapB8ue170006ES3_, symObjAddr: 0xDA00, symBinAddr: 0x10000FF68, symSize: 0x24 }
  - { offsetInCU: 0x20EA0, offset: 0x20EA0, size: 0x8, addend: 0x0, symName: __ZNSt3__118__unwrap_iter_implIPP4NodoLb1EE8__rewrapB8ue170006ES3_S3_, symObjAddr: 0xDA24, symBinAddr: 0x10000FF8C, symSize: 0x50 }
  - { offsetInCU: 0x20ED1, offset: 0x20ED1, size: 0x8, addend: 0x0, symName: __ZNSt3__114__split_bufferIP4NodoRNS_9allocatorIS2_EEE28__construct_at_end_with_sizeINS_13move_iteratorIPS2_EEEEvT_m, symObjAddr: 0xDA74, symBinAddr: 0x10000FFDC, symSize: 0xE4 }
  - { offsetInCU: 0x20F37, offset: 0x20F37, size: 0x8, addend: 0x0, symName: __ZNSt3__114__split_bufferIP4NodoRNS_9allocatorIS2_EEE21_ConstructTransactionC1B8ue170006EPPS2_m, symObjAddr: 0xDB94, symBinAddr: 0x1000100FC, symSize: 0x3C }
  - { offsetInCU: 0x20F7D, offset: 0x20F7D, size: 0x8, addend: 0x0, symName: __ZNSt3__116allocator_traitsINS_9allocatorIP4NodoEEE9constructB8ue170006IS3_JS3_EvEEvRS4_PT_DpOT0_, symObjAddr: 0xDBD0, symBinAddr: 0x100010138, symSize: 0x34 }
  - { offsetInCU: 0x20FD4, offset: 0x20FD4, size: 0x8, addend: 0x0, symName: __ZNSt3__114__split_bufferIP4NodoRNS_9allocatorIS2_EEE7__allocB8ue170006Ev, symObjAddr: 0xDC04, symBinAddr: 0x10001016C, symSize: 0x28 }
  - { offsetInCU: 0x20FFA, offset: 0x20FFA, size: 0x8, addend: 0x0, symName: __ZNKSt3__113move_iteratorIPP4NodoEdeB8ue170006Ev, symObjAddr: 0xDC2C, symBinAddr: 0x100010194, symSize: 0x18 }
  - { offsetInCU: 0x21020, offset: 0x21020, size: 0x8, addend: 0x0, symName: __ZNSt3__113move_iteratorIPP4NodoEppB8ue170006Ev, symObjAddr: 0xDC44, symBinAddr: 0x1000101AC, symSize: 0x20 }
  - { offsetInCU: 0x21046, offset: 0x21046, size: 0x8, addend: 0x0, symName: __ZNSt3__114__split_bufferIP4NodoRNS_9allocatorIS2_EEE21_ConstructTransactionD1B8ue170006Ev, symObjAddr: 0xDC64, symBinAddr: 0x1000101CC, symSize: 0x2C }
  - { offsetInCU: 0x21070, offset: 0x21070, size: 0x8, addend: 0x0, symName: __ZNSt3__114__split_bufferIP4NodoRNS_9allocatorIS2_EEE21_ConstructTransactionC2B8ue170006EPPS2_m, symObjAddr: 0xDC90, symBinAddr: 0x1000101F8, symSize: 0x44 }
  - { offsetInCU: 0x210B6, offset: 0x210B6, size: 0x8, addend: 0x0, symName: __ZNSt3__19allocatorIP4NodoE9constructB8ue170006IS2_JS2_EEEvPT_DpOT0_, symObjAddr: 0xDCD4, symBinAddr: 0x10001023C, symSize: 0x28 }
  - { offsetInCU: 0x2110C, offset: 0x2110C, size: 0x8, addend: 0x0, symName: __ZNSt3__117__compressed_pairIPP4NodoRNS_9allocatorIS2_EEE6secondB8ue170006Ev, symObjAddr: 0xDCFC, symBinAddr: 0x100010264, symSize: 0x28 }
  - { offsetInCU: 0x21132, offset: 0x21132, size: 0x8, addend: 0x0, symName: __ZNSt3__122__compressed_pair_elemIRNS_9allocatorIP4NodoEELi1ELb0EE5__getB8ue170006Ev, symObjAddr: 0xDD24, symBinAddr: 0x10001028C, symSize: 0x18 }
  - { offsetInCU: 0x21158, offset: 0x21158, size: 0x8, addend: 0x0, symName: __ZNSt3__114__split_bufferIP4NodoRNS_9allocatorIS2_EEE21_ConstructTransactionD2B8ue170006Ev, symObjAddr: 0xDD3C, symBinAddr: 0x1000102A4, symSize: 0x20 }
  - { offsetInCU: 0x21182, offset: 0x21182, size: 0x8, addend: 0x0, symName: __ZNKSt3__113move_iteratorIPP4NodoE4baseB8ue170006Ev, symObjAddr: 0xDDD4, symBinAddr: 0x10001033C, symSize: 0x18 }
  - { offsetInCU: 0x211A8, offset: 0x211A8, size: 0x8, addend: 0x0, symName: __ZNSt3__113move_iteratorIPP4NodoEC2B8ue170006ES3_, symObjAddr: 0xDDEC, symBinAddr: 0x100010354, symSize: 0x20 }
  - { offsetInCU: 0x211E0, offset: 0x211E0, size: 0x8, addend: 0x0, symName: __ZNSt3__19allocatorIP4NodoE9constructB8ue170006IS2_JRKS2_EEEvPT_DpOT0_, symObjAddr: 0xDE0C, symBinAddr: 0x100010374, symSize: 0x28 }
  - { offsetInCU: 0x21240, offset: 0x21240, size: 0x8, addend: 0x0, symName: __ZNKSt3__123__move_backward_trivialclB8ue170006IP4NodoS3_Li0EEENS_4pairIPT_PT0_EES6_S6_S8_, symObjAddr: 0xDFB0, symBinAddr: 0x100010518, symSize: 0x48 }
  - { offsetInCU: 0x212A8, offset: 0x212A8, size: 0x8, addend: 0x0, symName: __ZNSt3__114__split_bufferIP4NodoRNS_9allocatorIS2_EEEC2EmmS5_, symObjAddr: 0xE0C0, symBinAddr: 0x100010628, symSize: 0xD4 }
  - { offsetInCU: 0x2131B, offset: 0x2131B, size: 0x8, addend: 0x0, symName: __ZNSt3__117__compressed_pairIPP4NodoRNS_9allocatorIS2_EEEC1B8ue170006IDnS6_EEOT_OT0_, symObjAddr: 0xE194, symBinAddr: 0x1000106FC, symSize: 0x3C }
  - { offsetInCU: 0x21373, offset: 0x21373, size: 0x8, addend: 0x0, symName: __ZNSt3__117__compressed_pairIPP4NodoRNS_9allocatorIS2_EEEC2B8ue170006IDnS6_EEOT_OT0_, symObjAddr: 0xE210, symBinAddr: 0x100010778, symSize: 0x48 }
  - { offsetInCU: 0x213CB, offset: 0x213CB, size: 0x8, addend: 0x0, symName: __ZNSt3__122__compressed_pair_elemIRNS_9allocatorIP4NodoEELi1ELb0EEC2B8ue170006IS5_vEEOT_, symObjAddr: 0xE258, symBinAddr: 0x1000107C0, symSize: 0x20 }
  - { offsetInCU: 0x2140D, offset: 0x2140D, size: 0x8, addend: 0x0, symName: __ZNSt3__19allocatorIP4NodoE8allocateB8ue170006Em, symObjAddr: 0xE278, symBinAddr: 0x1000107E0, symSize: 0x84 }
  - { offsetInCU: 0x2144B, offset: 0x2144B, size: 0x8, addend: 0x0, symName: __ZNSt3__116allocator_traitsINS_9allocatorIP4NodoEEE8max_sizeB8ue170006IS4_vEEmRKS4_, symObjAddr: 0xE2FC, symBinAddr: 0x100010864, symSize: 0x24 }
  - { offsetInCU: 0x21479, offset: 0x21479, size: 0x8, addend: 0x0, symName: __ZNKSt3__19allocatorIP4NodoE8max_sizeB8ue170006Ev, symObjAddr: 0xE320, symBinAddr: 0x100010888, symSize: 0x14 }
  - { offsetInCU: 0x2149F, offset: 0x2149F, size: 0x8, addend: 0x0, symName: __ZNSt3__122__allocator_destructorINS_9allocatorI4NodoEEEC2B8ue170006ERS3_m, symObjAddr: 0xE334, symBinAddr: 0x10001089C, symSize: 0x2C }
  - { offsetInCU: 0x214E5, offset: 0x214E5, size: 0x8, addend: 0x0, symName: __ZNSt3__110unique_ptrIP4NodoNS_22__allocator_destructorINS_9allocatorIS1_EEEEEC2B8ue170006ILb1EvEES2_NS_16__dependent_typeINS_27__unique_ptr_deleter_sfinaeIS6_EEXT_EE20__good_rval_ref_typeE, symObjAddr: 0xE360, symBinAddr: 0x1000108C8, symSize: 0x5C }
  - { offsetInCU: 0x21536, offset: 0x21536, size: 0x8, addend: 0x0, symName: __ZNSt3__117__compressed_pairIP4NodoNS_22__allocator_destructorINS_9allocatorIS1_EEEEEC1B8ue170006IRS2_S6_EEOT_OT0_, symObjAddr: 0xE3BC, symBinAddr: 0x100010924, symSize: 0x3C }
  - { offsetInCU: 0x2158E, offset: 0x2158E, size: 0x8, addend: 0x0, symName: __ZNSt3__117__compressed_pairIP4NodoNS_22__allocator_destructorINS_9allocatorIS1_EEEEEC2B8ue170006IRS2_S6_EEOT_OT0_, symObjAddr: 0xE3F8, symBinAddr: 0x100010960, symSize: 0x48 }
  - { offsetInCU: 0x215E6, offset: 0x215E6, size: 0x8, addend: 0x0, symName: __ZNSt3__122__compressed_pair_elemIP4NodoLi0ELb0EEC2B8ue170006IRS2_vEEOT_, symObjAddr: 0xE440, symBinAddr: 0x1000109A8, symSize: 0x24 }
  - { offsetInCU: 0x21628, offset: 0x21628, size: 0x8, addend: 0x0, symName: __ZNSt3__122__compressed_pair_elemINS_22__allocator_destructorINS_9allocatorI4NodoEEEELi1ELb0EEC2B8ue170006IS5_vEEOT_, symObjAddr: 0xE464, symBinAddr: 0x1000109CC, symSize: 0x24 }
  - { offsetInCU: 0x2166A, offset: 0x2166A, size: 0x8, addend: 0x0, symName: __ZNKSt3__117__compressed_pairIP4NodoNS_22__allocator_destructorINS_9allocatorIS1_EEEEE5firstB8ue170006Ev, symObjAddr: 0xE488, symBinAddr: 0x1000109F0, symSize: 0x24 }
  - { offsetInCU: 0x21690, offset: 0x21690, size: 0x8, addend: 0x0, symName: __ZNSt3__117__compressed_pairIP4NodoNS_22__allocator_destructorINS_9allocatorIS1_EEEEE5firstB8ue170006Ev, symObjAddr: 0xE4AC, symBinAddr: 0x100010A14, symSize: 0x24 }
  - { offsetInCU: 0x216B6, offset: 0x216B6, size: 0x8, addend: 0x0, symName: __ZNSt3__117__compressed_pairIPP4NodoNS_9allocatorIS2_EEE5firstB8ue170006Ev, symObjAddr: 0xE4D0, symBinAddr: 0x100010A38, symSize: 0x24 }
  - { offsetInCU: 0x216DC, offset: 0x216DC, size: 0x8, addend: 0x0, symName: __ZNSt3__122__compressed_pair_elemIPP4NodoLi0ELb0EE5__getB8ue170006Ev, symObjAddr: 0xE4F4, symBinAddr: 0x100010A5C, symSize: 0x14 }
  - { offsetInCU: 0x21702, offset: 0x21702, size: 0x8, addend: 0x0, symName: __ZNSt3__117__compressed_pairIPP4NodoRNS_9allocatorIS2_EEE5firstB8ue170006Ev, symObjAddr: 0xE508, symBinAddr: 0x100010A70, symSize: 0x24 }
  - { offsetInCU: 0x21728, offset: 0x21728, size: 0x8, addend: 0x0, symName: __ZNSt3__110unique_ptrIP4NodoNS_22__allocator_destructorINS_9allocatorIS1_EEEEED2B8ue170006Ev, symObjAddr: 0xE52C, symBinAddr: 0x100010A94, symSize: 0x30 }
  - { offsetInCU: 0x21752, offset: 0x21752, size: 0x8, addend: 0x0, symName: __ZNSt3__110unique_ptrIP4NodoNS_22__allocator_destructorINS_9allocatorIS1_EEEEE5resetB8ue170006ES2_, symObjAddr: 0xE55C, symBinAddr: 0x100010AC4, symSize: 0x78 }
  - { offsetInCU: 0x21796, offset: 0x21796, size: 0x8, addend: 0x0, symName: __ZNSt3__117__compressed_pairIP4NodoNS_22__allocator_destructorINS_9allocatorIS1_EEEEE6secondB8ue170006Ev, symObjAddr: 0xE5D4, symBinAddr: 0x100010B3C, symSize: 0x28 }
  - { offsetInCU: 0x217BC, offset: 0x217BC, size: 0x8, addend: 0x0, symName: __ZNSt3__122__allocator_destructorINS_9allocatorI4NodoEEEclB8ue170006EPS2_, symObjAddr: 0xE5FC, symBinAddr: 0x100010B64, symSize: 0x34 }
  - { offsetInCU: 0x217F0, offset: 0x217F0, size: 0x8, addend: 0x0, symName: __ZNSt3__122__compressed_pair_elemINS_22__allocator_destructorINS_9allocatorI4NodoEEEELi1ELb0EE5__getB8ue170006Ev, symObjAddr: 0xE630, symBinAddr: 0x100010B98, symSize: 0x14 }
  - { offsetInCU: 0x21816, offset: 0x21816, size: 0x8, addend: 0x0, symName: __ZNSt3__114__split_bufferIP4NodoRNS_9allocatorIS2_EEED2Ev, symObjAddr: 0xE644, symBinAddr: 0x100010BAC, symSize: 0x80 }
  - { offsetInCU: 0x21842, offset: 0x21842, size: 0x8, addend: 0x0, symName: __ZNSt3__114__split_bufferIP4NodoRNS_9allocatorIS2_EEE5clearB8ue170006Ev, symObjAddr: 0xE6C4, symBinAddr: 0x100010C2C, symSize: 0x28 }
  - { offsetInCU: 0x21868, offset: 0x21868, size: 0x8, addend: 0x0, symName: __ZNKSt3__114__split_bufferIP4NodoRNS_9allocatorIS2_EEE8capacityB8ue170006Ev, symObjAddr: 0xE6EC, symBinAddr: 0x100010C54, symSize: 0x40 }
  - { offsetInCU: 0x2188E, offset: 0x2188E, size: 0x8, addend: 0x0, symName: __ZNSt3__114__split_bufferIP4NodoRNS_9allocatorIS2_EEE17__destruct_at_endB8ue170006EPS2_, symObjAddr: 0xE72C, symBinAddr: 0x100010C94, symSize: 0x2C }
  - { offsetInCU: 0x218C2, offset: 0x218C2, size: 0x8, addend: 0x0, symName: __ZNSt3__114__split_bufferIP4NodoRNS_9allocatorIS2_EEE17__destruct_at_endB8ue170006EPS2_NS_17integral_constantIbLb0EEE, symObjAddr: 0xE758, symBinAddr: 0x100010CC0, symSize: 0x94 }
  - { offsetInCU: 0x21902, offset: 0x21902, size: 0x8, addend: 0x0, symName: __ZNKSt3__114__split_bufferIP4NodoRNS_9allocatorIS2_EEE9__end_capB8ue170006Ev, symObjAddr: 0xE7EC, symBinAddr: 0x100010D54, symSize: 0x28 }
  - { offsetInCU: 0x21928, offset: 0x21928, size: 0x8, addend: 0x0, symName: __ZNKSt3__117__compressed_pairIPP4NodoRNS_9allocatorIS2_EEE5firstB8ue170006Ev, symObjAddr: 0xE814, symBinAddr: 0x100010D7C, symSize: 0x24 }
  - { offsetInCU: 0x2194E, offset: 0x2194E, size: 0x8, addend: 0x0, symName: __ZNSt3__19allocatorI4NodoE9constructB8ue170006IS1_JRKS1_EEEvPT_DpOT0_, symObjAddr: 0xE838, symBinAddr: 0x100010DA0, symSize: 0x30 }
  - { offsetInCU: 0x219A4, offset: 0x219A4, size: 0x8, addend: 0x0, symName: __ZNSt3__16__treeIiNS_4lessIiEENS_9allocatorIiEEE15__insert_uniqueB8ue170006ERKi, symObjAddr: 0xE868, symBinAddr: 0x100010DD0, symSize: 0x50 }
  - { offsetInCU: 0x219D9, offset: 0x219D9, size: 0x8, addend: 0x0, symName: __ZNSt3__14pairINS_21__tree_const_iteratorIiPNS_11__tree_nodeIiPvEElEEbEC1B8ue170006INS_15__tree_iteratorIiS5_lEEbEERKNS0_IT_T0_EE, symObjAddr: 0xE8B8, symBinAddr: 0x100010E20, symSize: 0x34 }
  - { offsetInCU: 0x21A23, offset: 0x21A23, size: 0x8, addend: 0x0, symName: __ZNSt3__16__treeIiNS_4lessIiEENS_9allocatorIiEEE25__emplace_unique_key_argsIiJRKiEEENS_4pairINS_15__tree_iteratorIiPNS_11__tree_nodeIiPvEElEEbEERKT_DpOT0_, symObjAddr: 0xE8EC, symBinAddr: 0x100010E54, symSize: 0xF0 }
  - { offsetInCU: 0x21ACF, offset: 0x21ACF, size: 0x8, addend: 0x0, symName: __ZNSt3__122__tree_key_value_typesIiE9__get_keyB8ue170006ERKi, symObjAddr: 0xE9DC, symBinAddr: 0x100010F44, symSize: 0x14 }
  - { offsetInCU: 0x21AF3, offset: 0x21AF3, size: 0x8, addend: 0x0, symName: __ZNSt3__16__treeIiNS_4lessIiEENS_9allocatorIiEEE12__find_equalIiEERPNS_16__tree_node_baseIPvEERPNS_15__tree_end_nodeISA_EERKT_, symObjAddr: 0xE9F0, symBinAddr: 0x100010F58, symSize: 0x184 }
  - { offsetInCU: 0x21B60, offset: 0x21B60, size: 0x8, addend: 0x0, symName: __ZNSt3__16__treeIiNS_4lessIiEENS_9allocatorIiEEE16__construct_nodeIJRKiEEENS_10unique_ptrINS_11__tree_nodeIiPvEENS_22__tree_node_destructorINS3_ISC_EEEEEEDpOT_, symObjAddr: 0xEB74, symBinAddr: 0x1000110DC, symSize: 0x110 }
  - { offsetInCU: 0x21BC1, offset: 0x21BC1, size: 0x8, addend: 0x0, symName: __ZNSt3__16__treeIiNS_4lessIiEENS_9allocatorIiEEE16__insert_node_atEPNS_15__tree_end_nodeIPNS_16__tree_node_baseIPvEEEERSA_SA_, symObjAddr: 0xEC84, symBinAddr: 0x1000111EC, symSize: 0xCC }
  - { offsetInCU: 0x21C16, offset: 0x21C16, size: 0x8, addend: 0x0, symName: __ZNKSt3__110unique_ptrINS_11__tree_nodeIiPvEENS_22__tree_node_destructorINS_9allocatorIS3_EEEEE3getB8ue170006Ev, symObjAddr: 0xED50, symBinAddr: 0x1000112B8, symSize: 0x28 }
  - { offsetInCU: 0x21C3C, offset: 0x21C3C, size: 0x8, addend: 0x0, symName: __ZNSt3__110unique_ptrINS_11__tree_nodeIiPvEENS_22__tree_node_destructorINS_9allocatorIS3_EEEEE7releaseB8ue170006Ev, symObjAddr: 0xED78, symBinAddr: 0x1000112E0, symSize: 0x44 }
  - { offsetInCU: 0x21C71, offset: 0x21C71, size: 0x8, addend: 0x0, symName: __ZNSt3__110unique_ptrINS_11__tree_nodeIiPvEENS_22__tree_node_destructorINS_9allocatorIS3_EEEEED1B8ue170006Ev, symObjAddr: 0xEDBC, symBinAddr: 0x100011324, symSize: 0x2C }
  - { offsetInCU: 0x21C9B, offset: 0x21C9B, size: 0x8, addend: 0x0, symName: __ZNSt3__115__tree_iteratorIiPNS_11__tree_nodeIiPvEElEC1B8ue170006ES4_, symObjAddr: 0xEDE8, symBinAddr: 0x100011350, symSize: 0x34 }
  - { offsetInCU: 0x21CD4, offset: 0x21CD4, size: 0x8, addend: 0x0, symName: __ZNSt3__14pairINS_15__tree_iteratorIiPNS_11__tree_nodeIiPvEElEEbEC1B8ue170006ERKS6_RKb, symObjAddr: 0xEE1C, symBinAddr: 0x100011384, symSize: 0x3C }
  - { offsetInCU: 0x21D1A, offset: 0x21D1A, size: 0x8, addend: 0x0, symName: __ZNKSt3__16__treeIiNS_4lessIiEENS_9allocatorIiEEE10__root_ptrB8ue170006Ev, symObjAddr: 0xEE58, symBinAddr: 0x1000113C0, symSize: 0x24 }
  - { offsetInCU: 0x21D40, offset: 0x21D40, size: 0x8, addend: 0x0, symName: __ZNSt3__16__treeIiNS_4lessIiEENS_9allocatorIiEEE10value_compB8ue170006Ev, symObjAddr: 0xEE7C, symBinAddr: 0x1000113E4, symSize: 0x28 }
  - { offsetInCU: 0x21D66, offset: 0x21D66, size: 0x8, addend: 0x0, symName: __ZNSt3__117__compressed_pairImNS_4lessIiEEE6secondB8ue170006Ev, symObjAddr: 0xEEA4, symBinAddr: 0x10001140C, symSize: 0x24 }
  - { offsetInCU: 0x21D8C, offset: 0x21D8C, size: 0x8, addend: 0x0, symName: __ZNSt3__122__compressed_pair_elemINS_4lessIiEELi1ELb1EE5__getB8ue170006Ev, symObjAddr: 0xEEC8, symBinAddr: 0x100011430, symSize: 0x14 }
  - { offsetInCU: 0x21DB2, offset: 0x21DB2, size: 0x8, addend: 0x0, symName: __ZNSt3__116allocator_traitsINS_9allocatorINS_11__tree_nodeIiPvEEEEE8allocateB8ue170006ERS5_m, symObjAddr: 0xEEDC, symBinAddr: 0x100011444, symSize: 0x2C }
  - { offsetInCU: 0x21DE5, offset: 0x21DE5, size: 0x8, addend: 0x0, symName: __ZNSt3__122__tree_node_destructorINS_9allocatorINS_11__tree_nodeIiPvEEEEEC1B8ue170006ERS5_b, symObjAddr: 0xEF08, symBinAddr: 0x100011470, symSize: 0x48 }
  - { offsetInCU: 0x21E33, offset: 0x21E33, size: 0x8, addend: 0x0, symName: __ZNSt3__110unique_ptrINS_11__tree_nodeIiPvEENS_22__tree_node_destructorINS_9allocatorIS3_EEEEEC1B8ue170006ILb1EvEEPS3_NS_16__dependent_typeINS_27__unique_ptr_deleter_sfinaeIS7_EEXT_EE20__good_rval_ref_typeE, symObjAddr: 0xEF50, symBinAddr: 0x1000114B8, symSize: 0x3C }
  - { offsetInCU: 0x21E84, offset: 0x21E84, size: 0x8, addend: 0x0, symName: __ZNSt3__116allocator_traitsINS_9allocatorINS_11__tree_nodeIiPvEEEEE9constructB8ue170006IiJRKiEvEEvRS5_PT_DpOT0_, symObjAddr: 0xEF8C, symBinAddr: 0x1000114F4, symSize: 0x34 }
  - { offsetInCU: 0x21EDB, offset: 0x21EDB, size: 0x8, addend: 0x0, symName: __ZNKSt3__110unique_ptrINS_11__tree_nodeIiPvEENS_22__tree_node_destructorINS_9allocatorIS3_EEEEEptB8ue170006Ev, symObjAddr: 0xEFC0, symBinAddr: 0x100011528, symSize: 0x28 }
  - { offsetInCU: 0x21F01, offset: 0x21F01, size: 0x8, addend: 0x0, symName: __ZNSt3__110unique_ptrINS_11__tree_nodeIiPvEENS_22__tree_node_destructorINS_9allocatorIS3_EEEEE11get_deleterB8ue170006Ev, symObjAddr: 0xEFE8, symBinAddr: 0x100011550, symSize: 0x24 }
  - { offsetInCU: 0x21F27, offset: 0x21F27, size: 0x8, addend: 0x0, symName: __ZNSt3__19allocatorINS_11__tree_nodeIiPvEEE8allocateB8ue170006Em, symObjAddr: 0xF00C, symBinAddr: 0x100011574, symSize: 0x84 }
  - { offsetInCU: 0x21F65, offset: 0x21F65, size: 0x8, addend: 0x0, symName: __ZNSt3__116allocator_traitsINS_9allocatorINS_11__tree_nodeIiPvEEEEE8max_sizeB8ue170006IS5_vEEmRKS5_, symObjAddr: 0xF090, symBinAddr: 0x1000115F8, symSize: 0x24 }
  - { offsetInCU: 0x21F93, offset: 0x21F93, size: 0x8, addend: 0x0, symName: __ZNKSt3__19allocatorINS_11__tree_nodeIiPvEEE8max_sizeB8ue170006Ev, symObjAddr: 0xF0B4, symBinAddr: 0x10001161C, symSize: 0x14 }
  - { offsetInCU: 0x21FB9, offset: 0x21FB9, size: 0x8, addend: 0x0, symName: __ZNSt3__122__tree_node_destructorINS_9allocatorINS_11__tree_nodeIiPvEEEEEC2B8ue170006ERS5_b, symObjAddr: 0xF0C8, symBinAddr: 0x100011630, symSize: 0x38 }
  - { offsetInCU: 0x22001, offset: 0x22001, size: 0x8, addend: 0x0, symName: __ZNSt3__110unique_ptrINS_11__tree_nodeIiPvEENS_22__tree_node_destructorINS_9allocatorIS3_EEEEEC2B8ue170006ILb1EvEEPS3_NS_16__dependent_typeINS_27__unique_ptr_deleter_sfinaeIS7_EEXT_EE20__good_rval_ref_typeE, symObjAddr: 0xF100, symBinAddr: 0x100011668, symSize: 0x5C }
  - { offsetInCU: 0x22052, offset: 0x22052, size: 0x8, addend: 0x0, symName: __ZNSt3__117__compressed_pairIPNS_11__tree_nodeIiPvEENS_22__tree_node_destructorINS_9allocatorIS3_EEEEEC1B8ue170006IRS4_S8_EEOT_OT0_, symObjAddr: 0xF15C, symBinAddr: 0x1000116C4, symSize: 0x3C }
  - { offsetInCU: 0x220AA, offset: 0x220AA, size: 0x8, addend: 0x0, symName: __ZNSt3__117__compressed_pairIPNS_11__tree_nodeIiPvEENS_22__tree_node_destructorINS_9allocatorIS3_EEEEEC2B8ue170006IRS4_S8_EEOT_OT0_, symObjAddr: 0xF198, symBinAddr: 0x100011700, symSize: 0x48 }
  - { offsetInCU: 0x22102, offset: 0x22102, size: 0x8, addend: 0x0, symName: __ZNSt3__122__compressed_pair_elemIPNS_11__tree_nodeIiPvEELi0ELb0EEC2B8ue170006IRS4_vEEOT_, symObjAddr: 0xF1E0, symBinAddr: 0x100011748, symSize: 0x24 }
  - { offsetInCU: 0x22144, offset: 0x22144, size: 0x8, addend: 0x0, symName: __ZNSt3__122__compressed_pair_elemINS_22__tree_node_destructorINS_9allocatorINS_11__tree_nodeIiPvEEEEEELi1ELb0EEC2B8ue170006IS7_vEEOT_, symObjAddr: 0xF204, symBinAddr: 0x10001176C, symSize: 0x24 }
  - { offsetInCU: 0x22186, offset: 0x22186, size: 0x8, addend: 0x0, symName: __ZNSt3__19allocatorINS_11__tree_nodeIiPvEEE9constructB8ue170006IiJRKiEEEvPT_DpOT0_, symObjAddr: 0xF228, symBinAddr: 0x100011790, symSize: 0x28 }
  - { offsetInCU: 0x221DC, offset: 0x221DC, size: 0x8, addend: 0x0, symName: __ZNKSt3__117__compressed_pairIPNS_11__tree_nodeIiPvEENS_22__tree_node_destructorINS_9allocatorIS3_EEEEE5firstB8ue170006Ev, symObjAddr: 0xF250, symBinAddr: 0x1000117B8, symSize: 0x24 }
  - { offsetInCU: 0x22202, offset: 0x22202, size: 0x8, addend: 0x0, symName: __ZNKSt3__122__compressed_pair_elemIPNS_11__tree_nodeIiPvEELi0ELb0EE5__getB8ue170006Ev, symObjAddr: 0xF274, symBinAddr: 0x1000117DC, symSize: 0x14 }
  - { offsetInCU: 0x22228, offset: 0x22228, size: 0x8, addend: 0x0, symName: __ZNSt3__117__compressed_pairIPNS_11__tree_nodeIiPvEENS_22__tree_node_destructorINS_9allocatorIS3_EEEEE6secondB8ue170006Ev, symObjAddr: 0xF288, symBinAddr: 0x1000117F0, symSize: 0x28 }
  - { offsetInCU: 0x2224E, offset: 0x2224E, size: 0x8, addend: 0x0, symName: __ZNSt3__122__compressed_pair_elemINS_22__tree_node_destructorINS_9allocatorINS_11__tree_nodeIiPvEEEEEELi1ELb0EE5__getB8ue170006Ev, symObjAddr: 0xF2B0, symBinAddr: 0x100011818, symSize: 0x14 }
  - { offsetInCU: 0x22274, offset: 0x22274, size: 0x8, addend: 0x0, symName: __ZNSt3__16__treeIiNS_4lessIiEENS_9allocatorIiEEE4sizeB8ue170006Ev, symObjAddr: 0xF2C4, symBinAddr: 0x10001182C, symSize: 0x28 }
  - { offsetInCU: 0x2229A, offset: 0x2229A, size: 0x8, addend: 0x0, symName: __ZNSt3__117__compressed_pairImNS_4lessIiEEE5firstB8ue170006Ev, symObjAddr: 0xF2EC, symBinAddr: 0x100011854, symSize: 0x24 }
  - { offsetInCU: 0x222C0, offset: 0x222C0, size: 0x8, addend: 0x0, symName: __ZNSt3__117__compressed_pairIPNS_11__tree_nodeIiPvEENS_22__tree_node_destructorINS_9allocatorIS3_EEEEE5firstB8ue170006Ev, symObjAddr: 0xF310, symBinAddr: 0x100011878, symSize: 0x24 }
  - { offsetInCU: 0x222E6, offset: 0x222E6, size: 0x8, addend: 0x0, symName: __ZNSt3__122__compressed_pair_elemIPNS_11__tree_nodeIiPvEELi0ELb0EE5__getB8ue170006Ev, symObjAddr: 0xF334, symBinAddr: 0x10001189C, symSize: 0x14 }
  - { offsetInCU: 0x2230C, offset: 0x2230C, size: 0x8, addend: 0x0, symName: __ZNSt3__110unique_ptrINS_11__tree_nodeIiPvEENS_22__tree_node_destructorINS_9allocatorIS3_EEEEED2B8ue170006Ev, symObjAddr: 0xF348, symBinAddr: 0x1000118B0, symSize: 0x30 }
  - { offsetInCU: 0x22336, offset: 0x22336, size: 0x8, addend: 0x0, symName: __ZNSt3__110unique_ptrINS_11__tree_nodeIiPvEENS_22__tree_node_destructorINS_9allocatorIS3_EEEEE5resetB8ue170006EPS3_, symObjAddr: 0xF378, symBinAddr: 0x1000118E0, symSize: 0x78 }
  - { offsetInCU: 0x2237A, offset: 0x2237A, size: 0x8, addend: 0x0, symName: __ZNSt3__122__tree_node_destructorINS_9allocatorINS_11__tree_nodeIiPvEEEEEclB8ue170006EPS4_, symObjAddr: 0xF3F0, symBinAddr: 0x100011958, symSize: 0x88 }
  - { offsetInCU: 0x223AF, offset: 0x223AF, size: 0x8, addend: 0x0, symName: __ZNSt3__115__tree_iteratorIiPNS_11__tree_nodeIiPvEElEC2B8ue170006ES4_, symObjAddr: 0xF478, symBinAddr: 0x1000119E0, symSize: 0x20 }
  - { offsetInCU: 0x223E8, offset: 0x223E8, size: 0x8, addend: 0x0, symName: __ZNSt3__14pairINS_15__tree_iteratorIiPNS_11__tree_nodeIiPvEElEEbEC2B8ue170006ERKS6_RKb, symObjAddr: 0xF498, symBinAddr: 0x100011A00, symSize: 0x38 }
  - { offsetInCU: 0x2242E, offset: 0x2242E, size: 0x8, addend: 0x0, symName: __ZNSt3__14pairINS_21__tree_const_iteratorIiPNS_11__tree_nodeIiPvEElEEbEC2B8ue170006INS_15__tree_iteratorIiS5_lEEbEERKNS0_IT_T0_EE, symObjAddr: 0xF4D0, symBinAddr: 0x100011A38, symSize: 0x50 }
  - { offsetInCU: 0x22478, offset: 0x22478, size: 0x8, addend: 0x0, symName: __ZNSt3__121__tree_const_iteratorIiPNS_11__tree_nodeIiPvEElEC1B8ue170006ENS_15__tree_iteratorIiS4_lEE, symObjAddr: 0xF520, symBinAddr: 0x100011A88, symSize: 0x34 }
  - { offsetInCU: 0x224B1, offset: 0x224B1, size: 0x8, addend: 0x0, symName: __ZNSt3__121__tree_const_iteratorIiPNS_11__tree_nodeIiPvEElEC2B8ue170006ENS_15__tree_iteratorIiS4_lEE, symObjAddr: 0xF554, symBinAddr: 0x100011ABC, symSize: 0x20 }
  - { offsetInCU: 0x224EA, offset: 0x224EA, size: 0x8, addend: 0x0, symName: __ZNSt3__15dequeI4NodoNS_9allocatorIS1_EEE5frontEv, symObjAddr: 0xF574, symBinAddr: 0x100011ADC, symSize: 0x58 }
  - { offsetInCU: 0x22512, offset: 0x22512, size: 0x8, addend: 0x0, symName: __ZNSt3__15dequeI4NodoNS_9allocatorIS1_EEE9pop_frontEv, symObjAddr: 0xF5CC, symBinAddr: 0x100011B34, symSize: 0xDC }
  - { offsetInCU: 0x22567, offset: 0x22567, size: 0x8, addend: 0x0, symName: __ZNKSt3__15dequeI4NodoNS_9allocatorIS1_EEE23__annotate_shrink_frontB8ue170006Emm, symObjAddr: 0xF6A8, symBinAddr: 0x100011C10, symSize: 0x70 }
  - { offsetInCU: 0x225AB, offset: 0x225AB, size: 0x8, addend: 0x0, symName: __ZNSt3__15dequeI4NodoNS_9allocatorIS1_EEE26__maybe_remove_front_spareB8ue170006Eb, symObjAddr: 0xF718, symBinAddr: 0x100011C80, symSize: 0xEC }
  - { offsetInCU: 0x225E0, offset: 0x225E0, size: 0x8, addend: 0x0, symName: __ZNKSt3__15dequeI4NodoNS_9allocatorIS1_EEE20__front_spare_blocksB8ue170006Ev, symObjAddr: 0xF804, symBinAddr: 0x100011D6C, symSize: 0x2C }
  - { offsetInCU: 0x22606, offset: 0x22606, size: 0x8, addend: 0x0, symName: __ZNSt3__111char_traitsIcE6lengthB8ue170006EPKc, symObjAddr: 0xFA24, symBinAddr: 0x100011F8C, symSize: 0x48 }
  - { offsetInCU: 0x22647, offset: 0x22647, size: 0x8, addend: 0x0, symName: __ZNKSt3__113basic_ostreamIcNS_11char_traitsIcEEE6sentrycvbB8ue170006Ev, symObjAddr: 0xFA6C, symBinAddr: 0x100011FD4, symSize: 0x1C }
  - { offsetInCU: 0x2266D, offset: 0x2266D, size: 0x8, addend: 0x0, symName: __ZNSt3__119ostreambuf_iteratorIcNS_11char_traitsIcEEEC1B8ue170006ERNS_13basic_ostreamIcS2_EE, symObjAddr: 0xFCD0, symBinAddr: 0x100012238, symSize: 0x34 }
  - { offsetInCU: 0x226A5, offset: 0x226A5, size: 0x8, addend: 0x0, symName: __ZNKSt3__18ios_base5flagsB8ue170006Ev, symObjAddr: 0xFD04, symBinAddr: 0x10001226C, symSize: 0x18 }
  - { offsetInCU: 0x226CD, offset: 0x226CD, size: 0x8, addend: 0x0, symName: __ZNKSt3__19basic_iosIcNS_11char_traitsIcEEE4fillB8ue170006Ev, symObjAddr: 0xFD1C, symBinAddr: 0x100012284, symSize: 0x64 }
  - { offsetInCU: 0x226F5, offset: 0x226F5, size: 0x8, addend: 0x0, symName: __ZNKSt3__119ostreambuf_iteratorIcNS_11char_traitsIcEEE6failedB8ue170006Ev, symObjAddr: 0xFD80, symBinAddr: 0x1000122E8, symSize: 0x24 }
  - { offsetInCU: 0x2271B, offset: 0x2271B, size: 0x8, addend: 0x0, symName: __ZNSt3__19basic_iosIcNS_11char_traitsIcEEE8setstateB8ue170006Ej, symObjAddr: 0xFDA4, symBinAddr: 0x10001230C, symSize: 0x2C }
  - { offsetInCU: 0x22750, offset: 0x22750, size: 0x8, addend: 0x0, symName: __ZNKSt3__18ios_base5widthB8ue170006Ev, symObjAddr: 0xFDD0, symBinAddr: 0x100012338, symSize: 0x18 }
  - { offsetInCU: 0x22778, offset: 0x22778, size: 0x8, addend: 0x0, symName: __ZNSt3__115basic_streambufIcNS_11char_traitsIcEEE5sputnB8ue170006EPKcl, symObjAddr: 0xFDE8, symBinAddr: 0x100012350, symSize: 0x3C }
  - { offsetInCU: 0x227BA, offset: 0x227BA, size: 0x8, addend: 0x0, symName: __ZNSt3__112basic_stringIcNS_11char_traitsIcEENS_9allocatorIcEEEC1B8ue170006Emc, symObjAddr: 0xFE24, symBinAddr: 0x10001238C, symSize: 0x3C }
  - { offsetInCU: 0x22802, offset: 0x22802, size: 0x8, addend: 0x0, symName: __ZNKSt3__112basic_stringIcNS_11char_traitsIcEENS_9allocatorIcEEE4dataB8ue170006Ev, symObjAddr: 0xFE60, symBinAddr: 0x1000123C8, symSize: 0x28 }
  - { offsetInCU: 0x22828, offset: 0x22828, size: 0x8, addend: 0x0, symName: __ZNSt3__18ios_base5widthB8ue170006El, symObjAddr: 0xFE88, symBinAddr: 0x1000123F0, symSize: 0x2C }
  - { offsetInCU: 0x2286E, offset: 0x2286E, size: 0x8, addend: 0x0, symName: __ZNSt3__112basic_stringIcNS_11char_traitsIcEENS_9allocatorIcEEEC2B8ue170006Emc, symObjAddr: 0xFEB4, symBinAddr: 0x10001241C, symSize: 0x4C }
  - { offsetInCU: 0x228B6, offset: 0x228B6, size: 0x8, addend: 0x0, symName: __ZNKSt3__112basic_stringIcNS_11char_traitsIcEENS_9allocatorIcEEE13__get_pointerB8ue170006Ev, symObjAddr: 0xFF14, symBinAddr: 0x10001247C, symSize: 0x54 }
  - { offsetInCU: 0x228DC, offset: 0x228DC, size: 0x8, addend: 0x0, symName: __ZNKSt3__112basic_stringIcNS_11char_traitsIcEENS_9allocatorIcEEE9__is_longB8ue170006Ev, symObjAddr: 0xFF68, symBinAddr: 0x1000124D0, symSize: 0x74 }
  - { offsetInCU: 0x22902, offset: 0x22902, size: 0x8, addend: 0x0, symName: __ZNKSt3__112basic_stringIcNS_11char_traitsIcEENS_9allocatorIcEEE18__get_long_pointerB8ue170006Ev, symObjAddr: 0xFFDC, symBinAddr: 0x100012544, symSize: 0x28 }
  - { offsetInCU: 0x22928, offset: 0x22928, size: 0x8, addend: 0x0, symName: __ZNKSt3__112basic_stringIcNS_11char_traitsIcEENS_9allocatorIcEEE19__get_short_pointerB8ue170006Ev, symObjAddr: 0x10004, symBinAddr: 0x10001256C, symSize: 0x28 }
  - { offsetInCU: 0x2294E, offset: 0x2294E, size: 0x8, addend: 0x0, symName: __ZNKSt3__117__compressed_pairINS_12basic_stringIcNS_11char_traitsIcEENS_9allocatorIcEEE5__repES5_E5firstB8ue170006Ev, symObjAddr: 0x1002C, symBinAddr: 0x100012594, symSize: 0x24 }
  - { offsetInCU: 0x22974, offset: 0x22974, size: 0x8, addend: 0x0, symName: __ZNKSt3__122__compressed_pair_elemINS_12basic_stringIcNS_11char_traitsIcEENS_9allocatorIcEEE5__repELi0ELb0EE5__getB8ue170006Ev, symObjAddr: 0x10050, symBinAddr: 0x1000125B8, symSize: 0x14 }
  - { offsetInCU: 0x2299A, offset: 0x2299A, size: 0x8, addend: 0x0, symName: __ZNSt3__114pointer_traitsIPKcE10pointer_toB8ue170006ERS1_, symObjAddr: 0x10064, symBinAddr: 0x1000125CC, symSize: 0x14 }
  - { offsetInCU: 0x229BD, offset: 0x229BD, size: 0x8, addend: 0x0, symName: __ZNSt3__119ostreambuf_iteratorIcNS_11char_traitsIcEEEC2B8ue170006ERNS_13basic_ostreamIcS2_EE, symObjAddr: 0x10078, symBinAddr: 0x1000125E0, symSize: 0x68 }
  - { offsetInCU: 0x229F5, offset: 0x229F5, size: 0x8, addend: 0x0, symName: __ZNKSt3__19basic_iosIcNS_11char_traitsIcEEE5rdbufB8ue170006Ev, symObjAddr: 0x100E0, symBinAddr: 0x100012648, symSize: 0x24 }
  - { offsetInCU: 0x22A1D, offset: 0x22A1D, size: 0x8, addend: 0x0, symName: __ZNKSt3__18ios_base5rdbufB8ue170006Ev, symObjAddr: 0x10104, symBinAddr: 0x10001266C, symSize: 0x18 }
  - { offsetInCU: 0x22A43, offset: 0x22A43, size: 0x8, addend: 0x0, symName: __ZNSt3__111char_traitsIcE11eq_int_typeB8ue170006Eii, symObjAddr: 0x1011C, symBinAddr: 0x100012684, symSize: 0x28 }
  - { offsetInCU: 0x22A76, offset: 0x22A76, size: 0x8, addend: 0x0, symName: __ZNKSt3__19basic_iosIcNS_11char_traitsIcEEE5widenB8ue170006Ec, symObjAddr: 0x10144, symBinAddr: 0x1000126AC, symSize: 0x8C }
  - { offsetInCU: 0x22ADF, offset: 0x22ADF, size: 0x8, addend: 0x0, symName: __ZNKSt3__15ctypeIcE5widenB8ue170006Ec, symObjAddr: 0x101FC, symBinAddr: 0x100012764, symSize: 0x38 }
  - { offsetInCU: 0x22B14, offset: 0x22B14, size: 0x8, addend: 0x0, symName: __ZNSt3__18ios_base8setstateB8ue170006Ej, symObjAddr: 0x10234, symBinAddr: 0x10001279C, symSize: 0x34 }
  - { offsetInCU: 0x22B4B, offset: 0x22B4B, size: 0x8, addend: 0x0, symName: __ZNKSt3__16__treeINS_12__value_typeIifEENS_19__map_value_compareIiS2_NS_4lessIiEELb1EEENS_9allocatorIS2_EEE5beginB8ue170006Ev, symObjAddr: 0x1028C, symBinAddr: 0x1000127F4, symSize: 0x34 }
  - { offsetInCU: 0x22B71, offset: 0x22B71, size: 0x8, addend: 0x0, symName: __ZNKSt3__16__treeINS_12__value_typeIifEENS_19__map_value_compareIiS2_NS_4lessIiEELb1EEENS_9allocatorIS2_EEE12__begin_nodeB8ue170006Ev, symObjAddr: 0x102C0, symBinAddr: 0x100012828, symSize: 0x14 }
  - { offsetInCU: 0x22B97, offset: 0x22B97, size: 0x8, addend: 0x0, symName: __ZNSt3__121__tree_const_iteratorINS_12__value_typeIifEEPNS_11__tree_nodeIS2_PvEElEC1B8ue170006EPNS_15__tree_end_nodeIPNS_16__tree_node_baseIS4_EEEE, symObjAddr: 0x102D4, symBinAddr: 0x10001283C, symSize: 0x34 }
  - { offsetInCU: 0x22BD0, offset: 0x22BD0, size: 0x8, addend: 0x0, symName: __ZNSt3__121__tree_const_iteratorINS_12__value_typeIifEEPNS_11__tree_nodeIS2_PvEElEC2B8ue170006EPNS_15__tree_end_nodeIPNS_16__tree_node_baseIS4_EEEE, symObjAddr: 0x10308, symBinAddr: 0x100012870, symSize: 0x20 }
  - { offsetInCU: 0x22C09, offset: 0x22C09, size: 0x8, addend: 0x0, symName: __ZNKSt3__16__treeINS_12__value_typeIifEENS_19__map_value_compareIiS2_NS_4lessIiEELb1EEENS_9allocatorIS2_EEE3endB8ue170006Ev, symObjAddr: 0x10328, symBinAddr: 0x100012890, symSize: 0x34 }
  - { offsetInCU: 0x22C2F, offset: 0x22C2F, size: 0x8, addend: 0x0, symName: __ZNKSt3__121__tree_const_iteratorINS_12__value_typeIifEEPNS_11__tree_nodeIS2_PvEElEptB8ue170006Ev, symObjAddr: 0x10390, symBinAddr: 0x1000128F8, symSize: 0x2C }
  - { offsetInCU: 0x22C55, offset: 0x22C55, size: 0x8, addend: 0x0, symName: __ZNSt3__114pointer_traitsIPKNS_12__value_typeIifEEE10pointer_toB8ue170006ERS3_, symObjAddr: 0x103BC, symBinAddr: 0x100012924, symSize: 0x14 }
  - { offsetInCU: 0x22C78, offset: 0x22C78, size: 0x8, addend: 0x0, symName: __ZNSt3__16__treeIiNS_4lessIiEENS_9allocatorIiEEE4findIiEENS_15__tree_iteratorIiPNS_11__tree_nodeIiPvEElEERKT_, symObjAddr: 0x103D0, symBinAddr: 0x100012938, symSize: 0xF8 }
  - { offsetInCU: 0x22CC7, offset: 0x22CC7, size: 0x8, addend: 0x0, symName: __ZNSt3__16__treeIiNS_4lessIiEENS_9allocatorIiEEE13__lower_boundIiEENS_15__tree_iteratorIiPNS_11__tree_nodeIiPvEElEERKT_SB_PNS_15__tree_end_nodeIPNS_16__tree_node_baseIS9_EEEE, symObjAddr: 0x104C8, symBinAddr: 0x100012A30, symSize: 0xA4 }
  - { offsetInCU: 0x22D25, offset: 0x22D25, size: 0x8, addend: 0x0, symName: __ZNSt3__16__treeIiNS_4lessIiEENS_9allocatorIiEEE3endB8ue170006Ev, symObjAddr: 0x105A0, symBinAddr: 0x100012B08, symSize: 0x34 }
  - { offsetInCU: 0x22D4B, offset: 0x22D4B, size: 0x8, addend: 0x0, symName: __ZNKSt3__115__tree_iteratorIiPNS_11__tree_nodeIiPvEElEdeB8ue170006Ev, symObjAddr: 0x105D4, symBinAddr: 0x100012B3C, symSize: 0x28 }
  - { offsetInCU: 0x22D71, offset: 0x22D71, size: 0x8, addend: 0x0, symName: __ZNSt3__115__tree_iteratorIiPNS_11__tree_nodeIiPvEElEC1B8ue170006EPNS_15__tree_end_nodeIPNS_16__tree_node_baseIS2_EEEE, symObjAddr: 0x105FC, symBinAddr: 0x100012B64, symSize: 0x34 }
  - { offsetInCU: 0x22DAA, offset: 0x22DAA, size: 0x8, addend: 0x0, symName: __ZNSt3__115__tree_iteratorIiPNS_11__tree_nodeIiPvEElEC2B8ue170006EPNS_15__tree_end_nodeIPNS_16__tree_node_baseIS2_EEEE, symObjAddr: 0x10630, symBinAddr: 0x100012B98, symSize: 0x20 }
  - { offsetInCU: 0x22DE3, offset: 0x22DE3, size: 0x8, addend: 0x0, symName: __ZNKSt3__115__tree_iteratorIiPNS_11__tree_nodeIiPvEElE8__get_npB8ue170006Ev, symObjAddr: 0x10680, symBinAddr: 0x100012BE8, symSize: 0x18 }
  - { offsetInCU: 0x22E09, offset: 0x22E09, size: 0x8, addend: 0x0, symName: __ZNSt3__15stackIiNS_5dequeIiNS_9allocatorIiEEEEEC2B8ue170006Ev, symObjAddr: 0x10698, symBinAddr: 0x100012C00, symSize: 0x2C }
  - { offsetInCU: 0x22E33, offset: 0x22E33, size: 0x8, addend: 0x0, symName: __ZNSt3__15dequeIiNS_9allocatorIiEEEC1B8ue170006Ev, symObjAddr: 0x106C4, symBinAddr: 0x100012C2C, symSize: 0x2C }
  - { offsetInCU: 0x22E5D, offset: 0x22E5D, size: 0x8, addend: 0x0, symName: __ZNSt3__15dequeIiNS_9allocatorIiEEEC2B8ue170006Ev, symObjAddr: 0x106F0, symBinAddr: 0x100012C58, symSize: 0x84 }
  - { offsetInCU: 0x22E87, offset: 0x22E87, size: 0x8, addend: 0x0, symName: __ZNSt3__114__split_bufferIPiNS_9allocatorIS1_EEEC1B8ue170006Ev, symObjAddr: 0x10774, symBinAddr: 0x100012CDC, symSize: 0x2C }
  - { offsetInCU: 0x22EB1, offset: 0x22EB1, size: 0x8, addend: 0x0, symName: __ZNSt3__117__compressed_pairImNS_9allocatorIiEEEC1B8ue170006IiNS_18__default_init_tagEEEOT_OT0_, symObjAddr: 0x107A0, symBinAddr: 0x100012D08, symSize: 0x3C }
  - { offsetInCU: 0x22F09, offset: 0x22F09, size: 0x8, addend: 0x0, symName: __ZNSt3__114__split_bufferIPiNS_9allocatorIS1_EEEC2B8ue170006Ev, symObjAddr: 0x107DC, symBinAddr: 0x100012D44, symSize: 0x48 }
  - { offsetInCU: 0x22F33, offset: 0x22F33, size: 0x8, addend: 0x0, symName: __ZNSt3__117__compressed_pairIPPiNS_9allocatorIS1_EEEC1B8ue170006IDnNS_18__default_init_tagEEEOT_OT0_, symObjAddr: 0x10824, symBinAddr: 0x100012D8C, symSize: 0x3C }
  - { offsetInCU: 0x22F8B, offset: 0x22F8B, size: 0x8, addend: 0x0, symName: __ZNSt3__117__compressed_pairIPPiNS_9allocatorIS1_EEEC2B8ue170006IDnNS_18__default_init_tagEEEOT_OT0_, symObjAddr: 0x10860, symBinAddr: 0x100012DC8, symSize: 0x40 }
  - { offsetInCU: 0x22FE3, offset: 0x22FE3, size: 0x8, addend: 0x0, symName: __ZNSt3__122__compressed_pair_elemIPPiLi0ELb0EEC2B8ue170006IDnvEEOT_, symObjAddr: 0x108A0, symBinAddr: 0x100012E08, symSize: 0x1C }
  - { offsetInCU: 0x23025, offset: 0x23025, size: 0x8, addend: 0x0, symName: __ZNSt3__122__compressed_pair_elemINS_9allocatorIPiEELi1ELb1EEC2B8ue170006ENS_18__default_init_tagE, symObjAddr: 0x108BC, symBinAddr: 0x100012E24, symSize: 0x2C }
  - { offsetInCU: 0x23059, offset: 0x23059, size: 0x8, addend: 0x0, symName: __ZNSt3__19allocatorIPiEC2B8ue170006Ev, symObjAddr: 0x108E8, symBinAddr: 0x100012E50, symSize: 0x2C }
  - { offsetInCU: 0x23083, offset: 0x23083, size: 0x8, addend: 0x0, symName: __ZNSt3__116__non_trivial_ifILb1ENS_9allocatorIPiEEEC2B8ue170006Ev, symObjAddr: 0x10914, symBinAddr: 0x100012E7C, symSize: 0x14 }
  - { offsetInCU: 0x230AD, offset: 0x230AD, size: 0x8, addend: 0x0, symName: __ZNSt3__117__compressed_pairImNS_9allocatorIiEEEC2B8ue170006IiNS_18__default_init_tagEEEOT_OT0_, symObjAddr: 0x10928, symBinAddr: 0x100012E90, symSize: 0x40 }
  - { offsetInCU: 0x23105, offset: 0x23105, size: 0x8, addend: 0x0, symName: __ZNSt3__15dequeIiNS_9allocatorIiEEE9push_backERKi, symObjAddr: 0x10968, symBinAddr: 0x100012ED0, symSize: 0xAC }
  - { offsetInCU: 0x2314B, offset: 0x2314B, size: 0x8, addend: 0x0, symName: __ZNKSt3__15dequeIiNS_9allocatorIiEEE12__back_spareB8ue170006Ev, symObjAddr: 0x10A14, symBinAddr: 0x100012F7C, symSize: 0x54 }
  - { offsetInCU: 0x23171, offset: 0x23171, size: 0x8, addend: 0x0, symName: __ZNSt3__15dequeIiNS_9allocatorIiEEE19__add_back_capacityEv, symObjAddr: 0x10A68, symBinAddr: 0x100012FD0, symSize: 0x364 }
  - { offsetInCU: 0x23226, offset: 0x23226, size: 0x8, addend: 0x0, symName: __ZNKSt3__15dequeIiNS_9allocatorIiEEE24__annotate_increase_backB8ue170006Em, symObjAddr: 0x10DCC, symBinAddr: 0x100013334, symSize: 0x7C }
  - { offsetInCU: 0x2325B, offset: 0x2325B, size: 0x8, addend: 0x0, symName: __ZNKSt3__15dequeIiNS_9allocatorIiEEE10__capacityB8ue170006Ev, symObjAddr: 0x10E48, symBinAddr: 0x1000133B0, symSize: 0x60 }
  - { offsetInCU: 0x23281, offset: 0x23281, size: 0x8, addend: 0x0, symName: __ZNKSt3__15dequeIiNS_9allocatorIiEEE13__front_spareB8ue170006Ev, symObjAddr: 0x10EA8, symBinAddr: 0x100013410, symSize: 0x18 }
  - { offsetInCU: 0x232A7, offset: 0x232A7, size: 0x8, addend: 0x0, symName: __ZNSt3__114__split_bufferIPiNS_9allocatorIS1_EEE9push_backB8ue170006ERKS1_, symObjAddr: 0x10EC0, symBinAddr: 0x100013428, symSize: 0x270 }
  - { offsetInCU: 0x2331F, offset: 0x2331F, size: 0x8, addend: 0x0, symName: __ZNKSt3__114__split_bufferIPiNS_9allocatorIS1_EEE12__back_spareB8ue170006Ev, symObjAddr: 0x11130, symBinAddr: 0x100013698, symSize: 0x40 }
  - { offsetInCU: 0x23345, offset: 0x23345, size: 0x8, addend: 0x0, symName: __ZNSt3__114__split_bufferIPiNS_9allocatorIS1_EEE9push_backEOS1_, symObjAddr: 0x11170, symBinAddr: 0x1000136D8, symSize: 0x270 }
  - { offsetInCU: 0x233BD, offset: 0x233BD, size: 0x8, addend: 0x0, symName: __ZNSt3__116allocator_traitsINS_9allocatorIiEEE8allocateB8ue170006ERS2_m, symObjAddr: 0x113E0, symBinAddr: 0x100013948, symSize: 0x2C }
  - { offsetInCU: 0x233F0, offset: 0x233F0, size: 0x8, addend: 0x0, symName: __ZNSt3__114__split_bufferIPiNS_9allocatorIS1_EEE10push_frontEOS1_, symObjAddr: 0x1140C, symBinAddr: 0x100013974, symSize: 0x26C }
  - { offsetInCU: 0x23468, offset: 0x23468, size: 0x8, addend: 0x0, symName: __ZNSt3__114__split_bufferIPiRNS_9allocatorIS1_EEEC1EmmS4_, symObjAddr: 0x11678, symBinAddr: 0x100013BE0, symSize: 0x44 }
  - { offsetInCU: 0x234C3, offset: 0x234C3, size: 0x8, addend: 0x0, symName: __ZNSt3__122__allocator_destructorINS_9allocatorIiEEEC1B8ue170006ERS2_m, symObjAddr: 0x116BC, symBinAddr: 0x100013C24, symSize: 0x3C }
  - { offsetInCU: 0x23579, offset: 0x23579, size: 0x8, addend: 0x0, symName: __ZNSt3__110unique_ptrIPiNS_22__allocator_destructorINS_9allocatorIiEEEEEC1B8ue170006ILb1EvEES1_NS_16__dependent_typeINS_27__unique_ptr_deleter_sfinaeIS5_EEXT_EE20__good_rval_ref_typeE, symObjAddr: 0x116F8, symBinAddr: 0x100013C60, symSize: 0x3C }
  - { offsetInCU: 0x235CA, offset: 0x235CA, size: 0x8, addend: 0x0, symName: __ZNSt3__114__split_bufferIPiRNS_9allocatorIS1_EEE9push_backEOS1_, symObjAddr: 0x11734, symBinAddr: 0x100013C9C, symSize: 0x270 }
  - { offsetInCU: 0x23642, offset: 0x23642, size: 0x8, addend: 0x0, symName: __ZNKSt3__110unique_ptrIPiNS_22__allocator_destructorINS_9allocatorIiEEEEE3getB8ue170006Ev, symObjAddr: 0x119A4, symBinAddr: 0x100013F0C, symSize: 0x28 }
  - { offsetInCU: 0x23668, offset: 0x23668, size: 0x8, addend: 0x0, symName: __ZNSt3__110unique_ptrIPiNS_22__allocator_destructorINS_9allocatorIiEEEEE7releaseB8ue170006Ev, symObjAddr: 0x119CC, symBinAddr: 0x100013F34, symSize: 0x44 }
  - { offsetInCU: 0x2369D, offset: 0x2369D, size: 0x8, addend: 0x0, symName: __ZNSt3__114__split_bufferIPiRNS_9allocatorIS1_EEE10push_frontERKS1_, symObjAddr: 0x11A10, symBinAddr: 0x100013F78, symSize: 0x26C }
  - { offsetInCU: 0x23715, offset: 0x23715, size: 0x8, addend: 0x0, symName: __ZNSt3__114__split_bufferIPiNS_9allocatorIS1_EEE9__end_capB8ue170006Ev, symObjAddr: 0x11CB8, symBinAddr: 0x100014220, symSize: 0x28 }
  - { offsetInCU: 0x2373B, offset: 0x2373B, size: 0x8, addend: 0x0, symName: __ZNSt3__114__split_bufferIPiRNS_9allocatorIS1_EEE9__end_capB8ue170006Ev, symObjAddr: 0x11CE0, symBinAddr: 0x100014248, symSize: 0x28 }
  - { offsetInCU: 0x23761, offset: 0x23761, size: 0x8, addend: 0x0, symName: __ZNSt3__110unique_ptrIPiNS_22__allocator_destructorINS_9allocatorIiEEEEED1B8ue170006Ev, symObjAddr: 0x11D08, symBinAddr: 0x100014270, symSize: 0x2C }
  - { offsetInCU: 0x2378B, offset: 0x2378B, size: 0x8, addend: 0x0, symName: __ZNSt3__114__split_bufferIPiRNS_9allocatorIS1_EEED1Ev, symObjAddr: 0x11D34, symBinAddr: 0x10001429C, symSize: 0x2C }
  - { offsetInCU: 0x237B7, offset: 0x237B7, size: 0x8, addend: 0x0, symName: __ZNSt3__114__split_bufferIPiRNS_9allocatorIS1_EEE18__construct_at_endINS_13move_iteratorIPS1_EEEENS_9enable_ifIXsr31__has_forward_iterator_categoryIT_EE5valueEvE4typeESB_SB_, symObjAddr: 0x11DA0, symBinAddr: 0x100014308, symSize: 0x60 }
  - { offsetInCU: 0x23804, offset: 0x23804, size: 0x8, addend: 0x0, symName: __ZNSt3__113move_iteratorIPPiEC1B8ue170006ES2_, symObjAddr: 0x11E00, symBinAddr: 0x100014368, symSize: 0x34 }
  - { offsetInCU: 0x2383C, offset: 0x2383C, size: 0x8, addend: 0x0, symName: __ZNSt3__116allocator_traitsINS_9allocatorIPiEEE9constructB8ue170006IS2_JRKS2_EvEEvRS3_PT_DpOT0_, symObjAddr: 0x11E34, symBinAddr: 0x10001439C, symSize: 0x34 }
  - { offsetInCU: 0x238AD, offset: 0x238AD, size: 0x8, addend: 0x0, symName: __ZNKSt3__114__move_trivialclB8ue170006IPiS2_Li0EEENS_4pairIPT_PT0_EES5_S5_S7_, symObjAddr: 0x12004, symBinAddr: 0x10001456C, symSize: 0x48 }
  - { offsetInCU: 0x23915, offset: 0x23915, size: 0x8, addend: 0x0, symName: __ZNSt3__14pairIPPiS2_EC1B8ue170006ERKS2_S5_, symObjAddr: 0x1227C, symBinAddr: 0x1000147E4, symSize: 0x3C }
  - { offsetInCU: 0x2395B, offset: 0x2395B, size: 0x8, addend: 0x0, symName: __ZNSt3__14pairIPPiS2_EC2B8ue170006ERKS2_S5_, symObjAddr: 0x122B8, symBinAddr: 0x100014820, symSize: 0x34 }
  - { offsetInCU: 0x239A1, offset: 0x239A1, size: 0x8, addend: 0x0, symName: __ZNSt3__118__unwrap_iter_implIPPiLb1EE8__unwrapB8ue170006ES2_, symObjAddr: 0x122EC, symBinAddr: 0x100014854, symSize: 0x24 }
  - { offsetInCU: 0x239C4, offset: 0x239C4, size: 0x8, addend: 0x0, symName: __ZNSt3__118__unwrap_iter_implIPPiLb1EE8__rewrapB8ue170006ES2_S2_, symObjAddr: 0x12310, symBinAddr: 0x100014878, symSize: 0x50 }
  - { offsetInCU: 0x239F5, offset: 0x239F5, size: 0x8, addend: 0x0, symName: __ZNSt3__114__split_bufferIPiRNS_9allocatorIS1_EEE28__construct_at_end_with_sizeINS_13move_iteratorIPS1_EEEEvT_m, symObjAddr: 0x12360, symBinAddr: 0x1000148C8, symSize: 0xE4 }
  - { offsetInCU: 0x23A5B, offset: 0x23A5B, size: 0x8, addend: 0x0, symName: __ZNSt3__114__split_bufferIPiRNS_9allocatorIS1_EEE21_ConstructTransactionC1B8ue170006EPPS1_m, symObjAddr: 0x12480, symBinAddr: 0x1000149E8, symSize: 0x3C }
  - { offsetInCU: 0x23AA1, offset: 0x23AA1, size: 0x8, addend: 0x0, symName: __ZNSt3__116allocator_traitsINS_9allocatorIPiEEE9constructB8ue170006IS2_JS2_EvEEvRS3_PT_DpOT0_, symObjAddr: 0x124BC, symBinAddr: 0x100014A24, symSize: 0x34 }
  - { offsetInCU: 0x23AF8, offset: 0x23AF8, size: 0x8, addend: 0x0, symName: __ZNSt3__114__split_bufferIPiRNS_9allocatorIS1_EEE7__allocB8ue170006Ev, symObjAddr: 0x124F0, symBinAddr: 0x100014A58, symSize: 0x28 }
  - { offsetInCU: 0x23B1E, offset: 0x23B1E, size: 0x8, addend: 0x0, symName: __ZNKSt3__113move_iteratorIPPiEdeB8ue170006Ev, symObjAddr: 0x12518, symBinAddr: 0x100014A80, symSize: 0x18 }
  - { offsetInCU: 0x23B44, offset: 0x23B44, size: 0x8, addend: 0x0, symName: __ZNSt3__113move_iteratorIPPiEppB8ue170006Ev, symObjAddr: 0x12530, symBinAddr: 0x100014A98, symSize: 0x20 }
  - { offsetInCU: 0x23B6A, offset: 0x23B6A, size: 0x8, addend: 0x0, symName: __ZNSt3__114__split_bufferIPiRNS_9allocatorIS1_EEE21_ConstructTransactionD1B8ue170006Ev, symObjAddr: 0x12550, symBinAddr: 0x100014AB8, symSize: 0x2C }
  - { offsetInCU: 0x23B94, offset: 0x23B94, size: 0x8, addend: 0x0, symName: __ZNSt3__114__split_bufferIPiRNS_9allocatorIS1_EEE21_ConstructTransactionC2B8ue170006EPPS1_m, symObjAddr: 0x1257C, symBinAddr: 0x100014AE4, symSize: 0x44 }
  - { offsetInCU: 0x23BDA, offset: 0x23BDA, size: 0x8, addend: 0x0, symName: __ZNSt3__19allocatorIPiE9constructB8ue170006IS1_JS1_EEEvPT_DpOT0_, symObjAddr: 0x125C0, symBinAddr: 0x100014B28, symSize: 0x28 }
  - { offsetInCU: 0x23C30, offset: 0x23C30, size: 0x8, addend: 0x0, symName: __ZNSt3__117__compressed_pairIPPiRNS_9allocatorIS1_EEE6secondB8ue170006Ev, symObjAddr: 0x125E8, symBinAddr: 0x100014B50, symSize: 0x28 }
  - { offsetInCU: 0x23C56, offset: 0x23C56, size: 0x8, addend: 0x0, symName: __ZNSt3__122__compressed_pair_elemIRNS_9allocatorIPiEELi1ELb0EE5__getB8ue170006Ev, symObjAddr: 0x12610, symBinAddr: 0x100014B78, symSize: 0x18 }
  - { offsetInCU: 0x23C7C, offset: 0x23C7C, size: 0x8, addend: 0x0, symName: __ZNSt3__114__split_bufferIPiRNS_9allocatorIS1_EEE21_ConstructTransactionD2B8ue170006Ev, symObjAddr: 0x12628, symBinAddr: 0x100014B90, symSize: 0x20 }
  - { offsetInCU: 0x23CA6, offset: 0x23CA6, size: 0x8, addend: 0x0, symName: __ZNKSt3__113move_iteratorIPPiE4baseB8ue170006Ev, symObjAddr: 0x126C0, symBinAddr: 0x100014C28, symSize: 0x18 }
  - { offsetInCU: 0x23CCC, offset: 0x23CCC, size: 0x8, addend: 0x0, symName: __ZNSt3__113move_iteratorIPPiEC2B8ue170006ES2_, symObjAddr: 0x126D8, symBinAddr: 0x100014C40, symSize: 0x20 }
  - { offsetInCU: 0x23D04, offset: 0x23D04, size: 0x8, addend: 0x0, symName: __ZNSt3__19allocatorIPiE9constructB8ue170006IS1_JRKS1_EEEvPT_DpOT0_, symObjAddr: 0x126F8, symBinAddr: 0x100014C60, symSize: 0x28 }
  - { offsetInCU: 0x23D5A, offset: 0x23D5A, size: 0x8, addend: 0x0, symName: __ZNKSt3__123__move_backward_trivialclB8ue170006IPiS2_Li0EEENS_4pairIPT_PT0_EES5_S5_S7_, symObjAddr: 0x1289C, symBinAddr: 0x100014E04, symSize: 0x48 }
  - { offsetInCU: 0x23DC2, offset: 0x23DC2, size: 0x8, addend: 0x0, symName: __ZNSt3__114__split_bufferIPiRNS_9allocatorIS1_EEEC2EmmS4_, symObjAddr: 0x129AC, symBinAddr: 0x100014F14, symSize: 0xD4 }
  - { offsetInCU: 0x23E35, offset: 0x23E35, size: 0x8, addend: 0x0, symName: __ZNSt3__117__compressed_pairIPPiRNS_9allocatorIS1_EEEC1B8ue170006IDnS5_EEOT_OT0_, symObjAddr: 0x12A80, symBinAddr: 0x100014FE8, symSize: 0x3C }
  - { offsetInCU: 0x23E8D, offset: 0x23E8D, size: 0x8, addend: 0x0, symName: __ZNSt3__117__compressed_pairIPPiRNS_9allocatorIS1_EEEC2B8ue170006IDnS5_EEOT_OT0_, symObjAddr: 0x12AFC, symBinAddr: 0x100015064, symSize: 0x48 }
  - { offsetInCU: 0x23EE5, offset: 0x23EE5, size: 0x8, addend: 0x0, symName: __ZNSt3__122__compressed_pair_elemIRNS_9allocatorIPiEELi1ELb0EEC2B8ue170006IS4_vEEOT_, symObjAddr: 0x12B44, symBinAddr: 0x1000150AC, symSize: 0x20 }
  - { offsetInCU: 0x23F27, offset: 0x23F27, size: 0x8, addend: 0x0, symName: __ZNSt3__19allocatorIPiE8allocateB8ue170006Em, symObjAddr: 0x12B64, symBinAddr: 0x1000150CC, symSize: 0x84 }
  - { offsetInCU: 0x23F65, offset: 0x23F65, size: 0x8, addend: 0x0, symName: __ZNSt3__116allocator_traitsINS_9allocatorIPiEEE8max_sizeB8ue170006IS3_vEEmRKS3_, symObjAddr: 0x12BE8, symBinAddr: 0x100015150, symSize: 0x24 }
  - { offsetInCU: 0x23F93, offset: 0x23F93, size: 0x8, addend: 0x0, symName: __ZNKSt3__19allocatorIPiE8max_sizeB8ue170006Ev, symObjAddr: 0x12C0C, symBinAddr: 0x100015174, symSize: 0x14 }
  - { offsetInCU: 0x23FB9, offset: 0x23FB9, size: 0x8, addend: 0x0, symName: __ZNSt3__122__allocator_destructorINS_9allocatorIiEEEC2B8ue170006ERS2_m, symObjAddr: 0x12C20, symBinAddr: 0x100015188, symSize: 0x2C }
  - { offsetInCU: 0x23FFF, offset: 0x23FFF, size: 0x8, addend: 0x0, symName: __ZNSt3__110unique_ptrIPiNS_22__allocator_destructorINS_9allocatorIiEEEEEC2B8ue170006ILb1EvEES1_NS_16__dependent_typeINS_27__unique_ptr_deleter_sfinaeIS5_EEXT_EE20__good_rval_ref_typeE, symObjAddr: 0x12C4C, symBinAddr: 0x1000151B4, symSize: 0x5C }
  - { offsetInCU: 0x24050, offset: 0x24050, size: 0x8, addend: 0x0, symName: __ZNSt3__117__compressed_pairIPiNS_22__allocator_destructorINS_9allocatorIiEEEEEC1B8ue170006IRS1_S5_EEOT_OT0_, symObjAddr: 0x12CA8, symBinAddr: 0x100015210, symSize: 0x3C }
  - { offsetInCU: 0x240A8, offset: 0x240A8, size: 0x8, addend: 0x0, symName: __ZNSt3__117__compressed_pairIPiNS_22__allocator_destructorINS_9allocatorIiEEEEEC2B8ue170006IRS1_S5_EEOT_OT0_, symObjAddr: 0x12CE4, symBinAddr: 0x10001524C, symSize: 0x48 }
  - { offsetInCU: 0x24100, offset: 0x24100, size: 0x8, addend: 0x0, symName: __ZNSt3__122__compressed_pair_elemIPiLi0ELb0EEC2B8ue170006IRS1_vEEOT_, symObjAddr: 0x12D2C, symBinAddr: 0x100015294, symSize: 0x24 }
  - { offsetInCU: 0x24142, offset: 0x24142, size: 0x8, addend: 0x0, symName: __ZNSt3__122__compressed_pair_elemINS_22__allocator_destructorINS_9allocatorIiEEEELi1ELb0EEC2B8ue170006IS4_vEEOT_, symObjAddr: 0x12D50, symBinAddr: 0x1000152B8, symSize: 0x24 }
  - { offsetInCU: 0x24184, offset: 0x24184, size: 0x8, addend: 0x0, symName: __ZNKSt3__117__compressed_pairIPiNS_22__allocator_destructorINS_9allocatorIiEEEEE5firstB8ue170006Ev, symObjAddr: 0x12D74, symBinAddr: 0x1000152DC, symSize: 0x24 }
  - { offsetInCU: 0x241AA, offset: 0x241AA, size: 0x8, addend: 0x0, symName: __ZNSt3__117__compressed_pairIPiNS_22__allocator_destructorINS_9allocatorIiEEEEE5firstB8ue170006Ev, symObjAddr: 0x12D98, symBinAddr: 0x100015300, symSize: 0x24 }
  - { offsetInCU: 0x241D0, offset: 0x241D0, size: 0x8, addend: 0x0, symName: __ZNSt3__117__compressed_pairIPPiNS_9allocatorIS1_EEE5firstB8ue170006Ev, symObjAddr: 0x12DBC, symBinAddr: 0x100015324, symSize: 0x24 }
  - { offsetInCU: 0x241F6, offset: 0x241F6, size: 0x8, addend: 0x0, symName: __ZNSt3__122__compressed_pair_elemIPPiLi0ELb0EE5__getB8ue170006Ev, symObjAddr: 0x12DE0, symBinAddr: 0x100015348, symSize: 0x14 }
  - { offsetInCU: 0x2421C, offset: 0x2421C, size: 0x8, addend: 0x0, symName: __ZNSt3__117__compressed_pairIPPiRNS_9allocatorIS1_EEE5firstB8ue170006Ev, symObjAddr: 0x12DF4, symBinAddr: 0x10001535C, symSize: 0x24 }
  - { offsetInCU: 0x24242, offset: 0x24242, size: 0x8, addend: 0x0, symName: __ZNSt3__110unique_ptrIPiNS_22__allocator_destructorINS_9allocatorIiEEEEED2B8ue170006Ev, symObjAddr: 0x12E18, symBinAddr: 0x100015380, symSize: 0x30 }
  - { offsetInCU: 0x2426C, offset: 0x2426C, size: 0x8, addend: 0x0, symName: __ZNSt3__110unique_ptrIPiNS_22__allocator_destructorINS_9allocatorIiEEEEE5resetB8ue170006ES1_, symObjAddr: 0x12E48, symBinAddr: 0x1000153B0, symSize: 0x78 }
  - { offsetInCU: 0x242B0, offset: 0x242B0, size: 0x8, addend: 0x0, symName: __ZNSt3__117__compressed_pairIPiNS_22__allocator_destructorINS_9allocatorIiEEEEE6secondB8ue170006Ev, symObjAddr: 0x12EC0, symBinAddr: 0x100015428, symSize: 0x28 }
  - { offsetInCU: 0x242D6, offset: 0x242D6, size: 0x8, addend: 0x0, symName: __ZNSt3__122__allocator_destructorINS_9allocatorIiEEEclB8ue170006EPi, symObjAddr: 0x12EE8, symBinAddr: 0x100015450, symSize: 0x34 }
  - { offsetInCU: 0x2430A, offset: 0x2430A, size: 0x8, addend: 0x0, symName: __ZNSt3__122__compressed_pair_elemINS_22__allocator_destructorINS_9allocatorIiEEEELi1ELb0EE5__getB8ue170006Ev, symObjAddr: 0x12F1C, symBinAddr: 0x100015484, symSize: 0x14 }
  - { offsetInCU: 0x24330, offset: 0x24330, size: 0x8, addend: 0x0, symName: __ZNSt3__114__split_bufferIPiRNS_9allocatorIS1_EEED2Ev, symObjAddr: 0x12F30, symBinAddr: 0x100015498, symSize: 0x80 }
  - { offsetInCU: 0x2435C, offset: 0x2435C, size: 0x8, addend: 0x0, symName: __ZNSt3__114__split_bufferIPiRNS_9allocatorIS1_EEE5clearB8ue170006Ev, symObjAddr: 0x12FB0, symBinAddr: 0x100015518, symSize: 0x28 }
  - { offsetInCU: 0x24382, offset: 0x24382, size: 0x8, addend: 0x0, symName: __ZNKSt3__114__split_bufferIPiRNS_9allocatorIS1_EEE8capacityB8ue170006Ev, symObjAddr: 0x12FD8, symBinAddr: 0x100015540, symSize: 0x40 }
  - { offsetInCU: 0x243A8, offset: 0x243A8, size: 0x8, addend: 0x0, symName: __ZNSt3__114__split_bufferIPiRNS_9allocatorIS1_EEE17__destruct_at_endB8ue170006EPS1_, symObjAddr: 0x13018, symBinAddr: 0x100015580, symSize: 0x2C }
  - { offsetInCU: 0x243DC, offset: 0x243DC, size: 0x8, addend: 0x0, symName: __ZNSt3__114__split_bufferIPiRNS_9allocatorIS1_EEE17__destruct_at_endB8ue170006EPS1_NS_17integral_constantIbLb0EEE, symObjAddr: 0x13044, symBinAddr: 0x1000155AC, symSize: 0x94 }
  - { offsetInCU: 0x2441C, offset: 0x2441C, size: 0x8, addend: 0x0, symName: __ZNKSt3__114__split_bufferIPiRNS_9allocatorIS1_EEE9__end_capB8ue170006Ev, symObjAddr: 0x130D8, symBinAddr: 0x100015640, symSize: 0x28 }
  - { offsetInCU: 0x24442, offset: 0x24442, size: 0x8, addend: 0x0, symName: __ZNKSt3__117__compressed_pairIPPiRNS_9allocatorIS1_EEE5firstB8ue170006Ev, symObjAddr: 0x13100, symBinAddr: 0x100015668, symSize: 0x24 }
  - { offsetInCU: 0x24468, offset: 0x24468, size: 0x8, addend: 0x0, symName: __ZNKSt3__16__treeINS_12__value_typeIifEENS_19__map_value_compareIiS2_NS_4lessIiEELb1EEENS_9allocatorIS2_EEE12__find_equalB8ue170006IiEERPNS_16__tree_node_baseIPvEERPNS_15__tree_end_nodeISE_EERKT_, symObjAddr: 0x13124, symBinAddr: 0x10001568C, symSize: 0x34 }
  - { offsetInCU: 0x244B5, offset: 0x244B5, size: 0x8, addend: 0x0, symName: __ZNSt12out_of_rangeC1B8ue170006EPKc, symObjAddr: 0x131BC, symBinAddr: 0x100015724, symSize: 0x34 }
  - { offsetInCU: 0x244ED, offset: 0x244ED, size: 0x8, addend: 0x0, symName: __ZNSt12out_of_rangeC2B8ue170006EPKc, symObjAddr: 0x131F0, symBinAddr: 0x100015758, symSize: 0x4C }
  - { offsetInCU: 0x24525, offset: 0x24525, size: 0x8, addend: 0x0, symName: __ZNSt3__15dequeIiNS_9allocatorIiEEE4backEv, symObjAddr: 0x1323C, symBinAddr: 0x1000157A4, symSize: 0x68 }
  - { offsetInCU: 0x2455C, offset: 0x2455C, size: 0x8, addend: 0x0, symName: __ZNSt3__15dequeIiNS_9allocatorIiEEE8pop_backEv, symObjAddr: 0x132A4, symBinAddr: 0x10001580C, symSize: 0xE0 }
  - { offsetInCU: 0x245C0, offset: 0x245C0, size: 0x8, addend: 0x0, symName: __ZNKSt3__15dequeIiNS_9allocatorIiEEE22__annotate_shrink_backB8ue170006Emm, symObjAddr: 0x13384, symBinAddr: 0x1000158EC, symSize: 0x60 }
  - { offsetInCU: 0x24604, offset: 0x24604, size: 0x8, addend: 0x0, symName: __ZNSt3__15dequeIiNS_9allocatorIiEEE25__maybe_remove_back_spareB8ue170006Eb, symObjAddr: 0x133E4, symBinAddr: 0x10001594C, symSize: 0xE8 }
  - { offsetInCU: 0x24639, offset: 0x24639, size: 0x8, addend: 0x0, symName: __ZNKSt3__15dequeIiNS_9allocatorIiEEE19__back_spare_blocksB8ue170006Ev, symObjAddr: 0x134CC, symBinAddr: 0x100015A34, symSize: 0x2C }
  - { offsetInCU: 0x2465F, offset: 0x2465F, size: 0x8, addend: 0x0, symName: __ZNSt3__114__split_bufferIPiNS_9allocatorIS1_EEE4backB8ue170006Ev, symObjAddr: 0x134F8, symBinAddr: 0x100015A60, symSize: 0x1C }
  - { offsetInCU: 0x24685, offset: 0x24685, size: 0x8, addend: 0x0, symName: __ZNSt3__114__split_bufferIPiNS_9allocatorIS1_EEE8pop_backB8ue170006Ev, symObjAddr: 0x13514, symBinAddr: 0x100015A7C, symSize: 0x2C }
  - { offsetInCU: 0x246AB, offset: 0x246AB, size: 0x8, addend: 0x0, symName: __ZNSt3__15queueI4NodoNS_5dequeIS1_NS_9allocatorIS1_EEEEEC2B8ue170006ERKS6_, symObjAddr: 0x13540, symBinAddr: 0x100015AA8, symSize: 0x34 }
  - { offsetInCU: 0x246E4, offset: 0x246E4, size: 0x8, addend: 0x0, symName: __ZNSt3__15dequeI4NodoNS_9allocatorIS1_EEEC1ERKS4_, symObjAddr: 0x13574, symBinAddr: 0x100015ADC, symSize: 0x34 }
  - { offsetInCU: 0x2471F, offset: 0x2471F, size: 0x8, addend: 0x0, symName: __ZNSt3__15dequeI4NodoNS_9allocatorIS1_EEEC2ERKS4_, symObjAddr: 0x135A8, symBinAddr: 0x100015B10, symSize: 0x100 }
  - { offsetInCU: 0x2475A, offset: 0x2475A, size: 0x8, addend: 0x0, symName: __ZNKSt3__15dequeI4NodoNS_9allocatorIS1_EEE7__allocB8ue170006Ev, symObjAddr: 0x136A8, symBinAddr: 0x100015C10, symSize: 0x28 }
  - { offsetInCU: 0x24780, offset: 0x24780, size: 0x8, addend: 0x0, symName: __ZNSt3__19allocatorIP4NodoEC1B8ue170006IS1_EERKNS0_IT_EE, symObjAddr: 0x136D0, symBinAddr: 0x100015C38, symSize: 0x34 }
  - { offsetInCU: 0x247BD, offset: 0x247BD, size: 0x8, addend: 0x0, symName: __ZNSt3__114__split_bufferIP4NodoNS_9allocatorIS2_EEEC1B8ue170006ERKS4_, symObjAddr: 0x13704, symBinAddr: 0x100015C6C, symSize: 0x34 }
  - { offsetInCU: 0x247F5, offset: 0x247F5, size: 0x8, addend: 0x0, symName: __ZNSt3__117__compressed_pairImNS_9allocatorI4NodoEEEC1B8ue170006IiRNS1_IPS2_EEEEOT_OT0_, symObjAddr: 0x13738, symBinAddr: 0x100015CA0, symSize: 0x3C }
  - { offsetInCU: 0x24852, offset: 0x24852, size: 0x8, addend: 0x0, symName: __ZNSt3__15dequeI4NodoNS_9allocatorIS1_EEE8__appendINS_16__deque_iteratorIS1_PKS1_RS7_PKS8_lLl85EEEEEvT_SD_PNS_9enable_ifIXsr31__has_forward_iterator_categoryISD_EE5valueEvE4typeE, symObjAddr: 0x13774, symBinAddr: 0x100015CDC, symSize: 0x78 }
  - { offsetInCU: 0x248AC, offset: 0x248AC, size: 0x8, addend: 0x0, symName: __ZNKSt3__15dequeI4NodoNS_9allocatorIS1_EEE5beginB8ue170006Ev, symObjAddr: 0x137EC, symBinAddr: 0x100015D54, symSize: 0xB0 }
  - { offsetInCU: 0x248E1, offset: 0x248E1, size: 0x8, addend: 0x0, symName: __ZNKSt3__15dequeI4NodoNS_9allocatorIS1_EEE3endB8ue170006Ev, symObjAddr: 0x1389C, symBinAddr: 0x100015E04, symSize: 0xC4 }
  - { offsetInCU: 0x24925, offset: 0x24925, size: 0x8, addend: 0x0, symName: __ZNKSt3__117__compressed_pairImNS_9allocatorI4NodoEEE6secondB8ue170006Ev, symObjAddr: 0x13960, symBinAddr: 0x100015EC8, symSize: 0x24 }
  - { offsetInCU: 0x2494B, offset: 0x2494B, size: 0x8, addend: 0x0, symName: __ZNSt3__19allocatorIP4NodoEC2B8ue170006IS1_EERKNS0_IT_EE, symObjAddr: 0x13984, symBinAddr: 0x100015EEC, symSize: 0x30 }
  - { offsetInCU: 0x24988, offset: 0x24988, size: 0x8, addend: 0x0, symName: __ZNSt3__114__split_bufferIP4NodoNS_9allocatorIS2_EEEC2B8ue170006ERKS4_, symObjAddr: 0x139B4, symBinAddr: 0x100015F1C, symSize: 0x4C }
  - { offsetInCU: 0x249C0, offset: 0x249C0, size: 0x8, addend: 0x0, symName: __ZNSt3__117__compressed_pairIPP4NodoNS_9allocatorIS2_EEEC1B8ue170006IDnRKS5_EEOT_OT0_, symObjAddr: 0x13A00, symBinAddr: 0x100015F68, symSize: 0x3C }
  - { offsetInCU: 0x24A18, offset: 0x24A18, size: 0x8, addend: 0x0, symName: __ZNSt3__117__compressed_pairIPP4NodoNS_9allocatorIS2_EEEC2B8ue170006IDnRKS5_EEOT_OT0_, symObjAddr: 0x13A3C, symBinAddr: 0x100015FA4, symSize: 0x44 }
  - { offsetInCU: 0x24A70, offset: 0x24A70, size: 0x8, addend: 0x0, symName: __ZNSt3__122__compressed_pair_elemINS_9allocatorIP4NodoEELi1ELb1EEC2B8ue170006IRKS4_vEEOT_, symObjAddr: 0x13A80, symBinAddr: 0x100015FE8, symSize: 0x18 }
  - { offsetInCU: 0x24AB2, offset: 0x24AB2, size: 0x8, addend: 0x0, symName: __ZNSt3__117__compressed_pairImNS_9allocatorI4NodoEEEC2B8ue170006IiRNS1_IPS2_EEEEOT_OT0_, symObjAddr: 0x13A98, symBinAddr: 0x100016000, symSize: 0x44 }
  - { offsetInCU: 0x24B0A, offset: 0x24B0A, size: 0x8, addend: 0x0, symName: __ZNSt3__122__compressed_pair_elemINS_9allocatorI4NodoEELi1ELb1EEC2B8ue170006IRNS1_IPS2_EEvEEOT_, symObjAddr: 0x13ADC, symBinAddr: 0x100016044, symSize: 0x34 }
  - { offsetInCU: 0x24B4C, offset: 0x24B4C, size: 0x8, addend: 0x0, symName: __ZNSt3__19allocatorI4NodoEC2B8ue170006IPS1_EERKNS0_IT_EE, symObjAddr: 0x13B10, symBinAddr: 0x100016078, symSize: 0x30 }
  - { offsetInCU: 0x24B89, offset: 0x24B89, size: 0x8, addend: 0x0, symName: __ZNSt3__15dequeI4NodoNS_9allocatorIS1_EEE18__append_with_sizeB8ue170006INS_16__deque_iteratorIS1_PKS1_RS7_PKS8_lLl85EEEEEvT_m, symObjAddr: 0x13B40, symBinAddr: 0x1000160A8, symSize: 0x224 }
  - { offsetInCU: 0x24C5A, offset: 0x24C5A, size: 0x8, addend: 0x0, symName: __ZNSt3__15dequeI4NodoNS_9allocatorIS1_EEE19__add_back_capacityEm, symObjAddr: 0x13DB0, symBinAddr: 0x100016318, symSize: 0x644 }
  - { offsetInCU: 0x24D5B, offset: 0x24D5B, size: 0x8, addend: 0x0, symName: __ZNKSt3__116__deque_iteratorI4NodoPS1_RS1_PS2_lLl85EEplB8ue170006El, symObjAddr: 0x143F4, symBinAddr: 0x10001695C, symSize: 0x40 }
  - { offsetInCU: 0x24DC2, offset: 0x24DC2, size: 0x8, addend: 0x0, symName: __ZNSt3__15dequeI4NodoNS_9allocatorIS1_EEE13__deque_rangeC1B8ue170006ENS_16__deque_iteratorIS1_PS1_RS1_PS7_lLl85EEESA_, symObjAddr: 0x14434, symBinAddr: 0x10001699C, symSize: 0x4C }
  - { offsetInCU: 0x24E0A, offset: 0x24E0A, size: 0x8, addend: 0x0, symName: __ZNKSt3__15dequeI4NodoNS_9allocatorIS1_EEE13__deque_range5beginB8ue170006Ev, symObjAddr: 0x14480, symBinAddr: 0x1000169E8, symSize: 0x24 }
  - { offsetInCU: 0x24E30, offset: 0x24E30, size: 0x8, addend: 0x0, symName: __ZNKSt3__15dequeI4NodoNS_9allocatorIS1_EEE13__deque_range3endB8ue170006Ev, symObjAddr: 0x144A4, symBinAddr: 0x100016A0C, symSize: 0x50 }
  - { offsetInCU: 0x24E56, offset: 0x24E56, size: 0x8, addend: 0x0, symName: __ZNKSt3__15dequeI4NodoNS_9allocatorIS1_EEE13__deque_rangedeB8ue170006Ev, symObjAddr: 0x14528, symBinAddr: 0x100016A90, symSize: 0x7C }
  - { offsetInCU: 0x24E90, offset: 0x24E90, size: 0x8, addend: 0x0, symName: __ZNSt3__15dequeI4NodoNS_9allocatorIS1_EEE21_ConstructTransactionC1B8ue170006EPS4_RNS4_19__deque_block_rangeE, symObjAddr: 0x145A4, symBinAddr: 0x100016B0C, symSize: 0x3C }
  - { offsetInCU: 0x24ED8, offset: 0x24ED8, size: 0x8, addend: 0x0, symName: __ZNKSt3__116__deque_iteratorI4NodoPKS1_RS2_PKS3_lLl85EEdeB8ue170006Ev, symObjAddr: 0x145E0, symBinAddr: 0x100016B48, symSize: 0x18 }
  - { offsetInCU: 0x24EFE, offset: 0x24EFE, size: 0x8, addend: 0x0, symName: __ZNSt3__116__deque_iteratorI4NodoPKS1_RS2_PKS3_lLl85EEppB8ue170006Ev, symObjAddr: 0x145F8, symBinAddr: 0x100016B60, symSize: 0x70 }
  - { offsetInCU: 0x24F24, offset: 0x24F24, size: 0x8, addend: 0x0, symName: __ZNSt3__15dequeI4NodoNS_9allocatorIS1_EEE21_ConstructTransactionD1B8ue170006Ev, symObjAddr: 0x14668, symBinAddr: 0x100016BD0, symSize: 0x2C }
  - { offsetInCU: 0x24F4E, offset: 0x24F4E, size: 0x8, addend: 0x0, symName: __ZNSt3__15dequeI4NodoNS_9allocatorIS1_EEE13__deque_rangeppB8ue170006Ev, symObjAddr: 0x14694, symBinAddr: 0x100016BFC, symSize: 0x64 }
  - { offsetInCU: 0x24F74, offset: 0x24F74, size: 0x8, addend: 0x0, symName: __ZNSt3__15dequeI4NodoNS_9allocatorIS1_EEE18__recommend_blocksB8ue170006Em, symObjAddr: 0x146F8, symBinAddr: 0x100016C60, symSize: 0x40 }
  - { offsetInCU: 0x24F98, offset: 0x24F98, size: 0x8, addend: 0x0, symName: __ZNSt3__114__split_bufferIP4NodoRNS_9allocatorIS2_EEE4backB8ue170006Ev, symObjAddr: 0x14738, symBinAddr: 0x100016CA0, symSize: 0x1C }
  - { offsetInCU: 0x24FBE, offset: 0x24FBE, size: 0x8, addend: 0x0, symName: __ZNSt3__114__split_bufferIP4NodoRNS_9allocatorIS2_EEE5beginB8ue170006Ev, symObjAddr: 0x14754, symBinAddr: 0x100016CBC, symSize: 0x18 }
  - { offsetInCU: 0x24FE4, offset: 0x24FE4, size: 0x8, addend: 0x0, symName: __ZNSt3__114__split_bufferIP4NodoRNS_9allocatorIS2_EEE3endB8ue170006Ev, symObjAddr: 0x1476C, symBinAddr: 0x100016CD4, symSize: 0x18 }
  - { offsetInCU: 0x2500A, offset: 0x2500A, size: 0x8, addend: 0x0, symName: __ZNSt3__114__split_bufferIP4NodoRNS_9allocatorIS2_EEE9push_backB8ue170006ERKS2_, symObjAddr: 0x14784, symBinAddr: 0x100016CEC, symSize: 0x268 }
  - { offsetInCU: 0x25082, offset: 0x25082, size: 0x8, addend: 0x0, symName: __ZNSt3__116__deque_iteratorI4NodoPS1_RS1_PS2_lLl85EEpLB8ue170006El, symObjAddr: 0x149EC, symBinAddr: 0x100016F54, symSize: 0x120 }
  - { offsetInCU: 0x250D4, offset: 0x250D4, size: 0x8, addend: 0x0, symName: __ZNSt3__15dequeI4NodoNS_9allocatorIS1_EEE13__deque_rangeC2B8ue170006ENS_16__deque_iteratorIS1_PS1_RS1_PS7_lLl85EEESA_, symObjAddr: 0x14B0C, symBinAddr: 0x100017074, symSize: 0x34 }
  - { offsetInCU: 0x2511C, offset: 0x2511C, size: 0x8, addend: 0x0, symName: __ZNSt3__15dequeI4NodoNS_9allocatorIS1_EEE19__deque_block_rangeC1B8ue170006EPS1_S6_, symObjAddr: 0x14B70, symBinAddr: 0x1000170D8, symSize: 0x3C }
  - { offsetInCU: 0x25164, offset: 0x25164, size: 0x8, addend: 0x0, symName: __ZNSt3__15dequeI4NodoNS_9allocatorIS1_EEE19__deque_block_rangeC2B8ue170006EPS1_S6_, symObjAddr: 0x14BAC, symBinAddr: 0x100017114, symSize: 0x2C }
  - { offsetInCU: 0x251AC, offset: 0x251AC, size: 0x8, addend: 0x0, symName: __ZNSt3__15dequeI4NodoNS_9allocatorIS1_EEE21_ConstructTransactionC2B8ue170006EPS4_RNS4_19__deque_block_rangeE, symObjAddr: 0x14BD8, symBinAddr: 0x100017140, symSize: 0x48 }
  - { offsetInCU: 0x251F4, offset: 0x251F4, size: 0x8, addend: 0x0, symName: __ZNSt3__15dequeI4NodoNS_9allocatorIS1_EEE21_ConstructTransactionD2B8ue170006Ev, symObjAddr: 0x14C20, symBinAddr: 0x100017188, symSize: 0x5C }
  - { offsetInCU: 0x2521E, offset: 0x2521E, size: 0x8, addend: 0x0, symName: __ZNSt3__116__deque_iteratorI4NodoPKS1_RS2_PKS3_lLl85EEC1B8ue170006ES6_S3_, symObjAddr: 0x14DC8, symBinAddr: 0x100017330, symSize: 0x3C }
  - { offsetInCU: 0x25266, offset: 0x25266, size: 0x8, addend: 0x0, symName: __ZNSt3__116__deque_iteratorI4NodoPKS1_RS2_PKS3_lLl85EEC2B8ue170006ES6_S3_, symObjAddr: 0x14E04, symBinAddr: 0x10001736C, symSize: 0x2C }
  - { offsetInCU: 0xB5DB, offset: 0x30C0C, size: 0x8, addend: 0x0, symName: __ZN3DFSC2ER5GrafoR4NodoS3_, symObjAddr: 0x0, symBinAddr: 0x1000173EC, symSize: 0x87C }
  - { offsetInCU: 0xB6C8, offset: 0x30CF9, size: 0x8, addend: 0x0, symName: __ZN3DFS14printCaso1nodoE4NodoS0_, symObjAddr: 0xA88, symBinAddr: 0x100017C68, symSize: 0x238 }
  - { offsetInCU: 0xB718, offset: 0x30D49, size: 0x8, addend: 0x0, symName: __ZNSt3__15stackI4NodoNS_5dequeIS1_NS_9allocatorIS1_EEEEEC1B8ue170006Ev, symObjAddr: 0xEB4, symBinAddr: 0x100017EA0, symSize: 0x2C }
  - { offsetInCU: 0xB742, offset: 0x30D73, size: 0x8, addend: 0x0, symName: __ZNSt3__15stackI4NodoNS_5dequeIS1_NS_9allocatorIS1_EEEEE4pushB8ue170006ERKS1_, symObjAddr: 0xEE0, symBinAddr: 0x100017ECC, symSize: 0x2C }
  - { offsetInCU: 0xB777, offset: 0x30DA8, size: 0x8, addend: 0x0, symName: __ZN3DFS8cabezeraE4NodoS0_, symObjAddr: 0xF58, symBinAddr: 0x100017EF8, symSize: 0x188 }
  - { offsetInCU: 0xB7BD, offset: 0x30DEE, size: 0x8, addend: 0x0, symName: __ZNKSt3__15stackI4NodoNS_5dequeIS1_NS_9allocatorIS1_EEEEE5emptyB8ue170006Ev, symObjAddr: 0x10E0, symBinAddr: 0x100018080, symSize: 0x28 }
  - { offsetInCU: 0xB7E3, offset: 0x30E14, size: 0x8, addend: 0x0, symName: __ZNSt3__15stackI4NodoNS_5dequeIS1_NS_9allocatorIS1_EEEEE3topB8ue170006Ev, symObjAddr: 0x1108, symBinAddr: 0x1000180A8, symSize: 0x24 }
  - { offsetInCU: 0xB809, offset: 0x30E3A, size: 0x8, addend: 0x0, symName: __ZNSt3__15stackI4NodoNS_5dequeIS1_NS_9allocatorIS1_EEEEE3popB8ue170006Ev, symObjAddr: 0x112C, symBinAddr: 0x1000180CC, symSize: 0x24 }
  - { offsetInCU: 0xB82F, offset: 0x30E60, size: 0x8, addend: 0x0, symName: __ZN3DFS8printDFSE4NodoS0_, symObjAddr: 0x1180, symBinAddr: 0x1000180F0, symSize: 0x3DC }
  - { offsetInCU: 0xB8B1, offset: 0x30EE2, size: 0x8, addend: 0x0, symName: __ZN3DFS9IteracionE4NodoRNSt3__15stackIS0_NS1_5dequeIS0_NS1_9allocatorIS0_EEEEEEi, symObjAddr: 0x1858, symBinAddr: 0x1000184CC, symSize: 0x27C }
  - { offsetInCU: 0xB95F, offset: 0x30F90, size: 0x8, addend: 0x0, symName: __ZNSt3__15stackI4NodoNS_5dequeIS1_NS_9allocatorIS1_EEEEED1Ev, symObjAddr: 0x1AD4, symBinAddr: 0x100018748, symSize: 0x2C }
  - { offsetInCU: 0xB990, offset: 0x30FC1, size: 0x8, addend: 0x0, symName: __ZN3DFSC1ER5GrafoR4NodoS3_, symObjAddr: 0x1BF4, symBinAddr: 0x100018774, symSize: 0x44 }
  - { offsetInCU: 0xBA13, offset: 0x31044, size: 0x8, addend: 0x0, symName: __ZNSt3__15stackI4NodoNS_5dequeIS1_NS_9allocatorIS1_EEEEEC1B8ue170006ERKS6_, symObjAddr: 0x1DC4, symBinAddr: 0x1000187B8, symSize: 0x34 }
  - { offsetInCU: 0xBA6E, offset: 0x3109F, size: 0x8, addend: 0x0, symName: __ZNSt3__15stackI4NodoNS_5dequeIS1_NS_9allocatorIS1_EEEEED2Ev, symObjAddr: 0x67C8, symBinAddr: 0x1000187EC, symSize: 0x2C }
  - { offsetInCU: 0xBAB8, offset: 0x310E9, size: 0x8, addend: 0x0, symName: __ZNSt3__15stackI4NodoNS_5dequeIS1_NS_9allocatorIS1_EEEEEC2B8ue170006Ev, symObjAddr: 0xBD84, symBinAddr: 0x100018818, symSize: 0x2C }
  - { offsetInCU: 0xBAEC, offset: 0x3111D, size: 0x8, addend: 0x0, symName: __ZNSt3__15dequeI4NodoNS_9allocatorIS1_EEE4backEv, symObjAddr: 0xF584, symBinAddr: 0x100018844, symSize: 0x70 }
  - { offsetInCU: 0xBB23, offset: 0x31154, size: 0x8, addend: 0x0, symName: __ZNSt3__15dequeI4NodoNS_9allocatorIS1_EEE8pop_backEv, symObjAddr: 0xF5F4, symBinAddr: 0x1000188B4, symSize: 0xE8 }
  - { offsetInCU: 0xBB87, offset: 0x311B8, size: 0x8, addend: 0x0, symName: __ZNKSt3__15dequeI4NodoNS_9allocatorIS1_EEE22__annotate_shrink_backB8ue170006Emm, symObjAddr: 0xF6DC, symBinAddr: 0x10001899C, symSize: 0x60 }
  - { offsetInCU: 0xBBCB, offset: 0x311FC, size: 0x8, addend: 0x0, symName: __ZNSt3__15dequeI4NodoNS_9allocatorIS1_EEE25__maybe_remove_back_spareB8ue170006Eb, symObjAddr: 0xF73C, symBinAddr: 0x1000189FC, symSize: 0xE8 }
  - { offsetInCU: 0xBC00, offset: 0x31231, size: 0x8, addend: 0x0, symName: __ZNKSt3__15dequeI4NodoNS_9allocatorIS1_EEE19__back_spare_blocksB8ue170006Ev, symObjAddr: 0xF824, symBinAddr: 0x100018AE4, symSize: 0x2C }
  - { offsetInCU: 0xBC26, offset: 0x31257, size: 0x8, addend: 0x0, symName: __ZNSt3__114__split_bufferIP4NodoNS_9allocatorIS2_EEE4backB8ue170006Ev, symObjAddr: 0xF850, symBinAddr: 0x100018B10, symSize: 0x1C }
  - { offsetInCU: 0xBC4C, offset: 0x3127D, size: 0x8, addend: 0x0, symName: __ZNSt3__114__split_bufferIP4NodoNS_9allocatorIS2_EEE8pop_backB8ue170006Ev, symObjAddr: 0xF86C, symBinAddr: 0x100018B2C, symSize: 0x2C }
  - { offsetInCU: 0xBC90, offset: 0x312C1, size: 0x8, addend: 0x0, symName: __ZNSt3__15stackI4NodoNS_5dequeIS1_NS_9allocatorIS1_EEEEEC2B8ue170006ERKS6_, symObjAddr: 0x135A8, symBinAddr: 0x100018B58, symSize: 0x34 }
  - { offsetInCU: 0x6666, offset: 0x379B9, size: 0x8, addend: 0x0, symName: __ZNSt3__1lsB8ue170006IcNS_11char_traitsIcEENS_9allocatorIcEEEERNS_13basic_ostreamIT_T0_EES9_RKNS_12basic_stringIS6_S7_T1_EE, symObjAddr: 0xAE4, symBinAddr: 0x1000194AC, symSize: 0x4C }
  - { offsetInCU: 0x66BE, offset: 0x37A11, size: 0x8, addend: 0x0, symName: __ZNSt3__1ltB8ue170006IcNS_11char_traitsIcEENS_9allocatorIcEEEEbRKNS_12basic_stringIT_T0_T1_EESB_, symObjAddr: 0xC10, symBinAddr: 0x1000194F8, symSize: 0x38 }
  - { offsetInCU: 0x6721, offset: 0x37A74, size: 0x8, addend: 0x0, symName: __ZNSt3__142__uninitialized_allocator_move_if_noexceptB8ue170006INS_9allocatorI4NodoEENS_16reverse_iteratorIPS2_EES6_S6_EET2_RT_T0_T1_S7_, symObjAddr: 0x483C, symBinAddr: 0x100019BEC, symSize: 0x134 }
  - { offsetInCU: 0x67C1, offset: 0x37B14, size: 0x8, addend: 0x0, symName: __ZNSt3__14swapB8ue170006IP4NodoEEvRT_S4_, symObjAddr: 0x49BC, symBinAddr: 0x100019D20, symSize: 0x3C }
  - { offsetInCU: 0x6812, offset: 0x37B65, size: 0x8, addend: 0x0, symName: __ZNSt3__122__make_exception_guardB8ue170006INS_29_AllocatorDestroyRangeReverseINS_9allocatorI4NodoEENS_16reverse_iteratorIPS3_EEEEEENS_28__exception_guard_exceptionsIT_EESA_, symObjAddr: 0x4AC0, symBinAddr: 0x100019D5C, symSize: 0x4C }
  - { offsetInCU: 0x6848, offset: 0x37B9B, size: 0x8, addend: 0x0, symName: __ZNSt3__119__allocator_destroyB8ue170006INS_9allocatorI4NodoEENS_16reverse_iteratorINS4_IPS2_EEEES7_EEvRT_T0_T1_, symObjAddr: 0x4E54, symBinAddr: 0x100019FCC, symSize: 0x70 }
  - { offsetInCU: 0x68AD, offset: 0x37C00, size: 0x8, addend: 0x0, symName: __ZNSt3__1neB8ue170006INS_16reverse_iteratorIP4NodoEES4_EEbRKNS1_IT_EERKNS1_IT0_EE, symObjAddr: 0x4F00, symBinAddr: 0x10001A078, symSize: 0x60 }
  - { offsetInCU: 0x68F9, offset: 0x37C4C, size: 0x8, addend: 0x0, symName: __ZNSt3__112__to_addressB8ue170006INS_16reverse_iteratorINS1_IP4NodoEEEEvEEu7__decayIDTclsr19__to_address_helperIT_EE6__callclsr3stdE7declvalIRKS6_EEEEES8_, symObjAddr: 0x4F60, symBinAddr: 0x10001A0D8, symSize: 0x24 }
  - { offsetInCU: 0x6E12, offset: 0x38165, size: 0x8, addend: 0x0, symName: __ZNSt3__16vectorI4NodoNS_9allocatorIS1_EEE26__swap_out_circular_bufferERNS_14__split_bufferIS1_RS3_EE, symObjAddr: 0x409C, symBinAddr: 0x100019878, symSize: 0x110 }
  - { offsetInCU: 0x8EDF, offset: 0x3A232, size: 0x8, addend: 0x0, symName: __ZN5GrafoC2Ei15MatrizDistancia4NodoS1_, symObjAddr: 0x0, symBinAddr: 0x100018B8C, symSize: 0x1CC }
  - { offsetInCU: 0x8F6F, offset: 0x3A2C2, size: 0x8, addend: 0x0, symName: __ZNSt3__16vectorI4NodoNS_9allocatorIS1_EEE9push_backB8ue170006ERKS1_, symObjAddr: 0x250, symBinAddr: 0x100018D58, symSize: 0x6C }
  - { offsetInCU: 0x8FA6, offset: 0x3A2F9, size: 0x8, addend: 0x0, symName: __ZN5GrafoC1Ei15MatrizDistancia4NodoS1_, symObjAddr: 0x320, symBinAddr: 0x100018DC4, symSize: 0x54 }
  - { offsetInCU: 0x900C, offset: 0x3A35F, size: 0x8, addend: 0x0, symName: __ZN5Grafo10printGrafoEv, symObjAddr: 0x374, symBinAddr: 0x100018E18, symSize: 0x90 }
  - { offsetInCU: 0x9050, offset: 0x3A3A3, size: 0x8, addend: 0x0, symName: __ZN5Grafo16getNumeroAristasEv, symObjAddr: 0x478, symBinAddr: 0x100018EA8, symSize: 0x9C }
  - { offsetInCU: 0x90A2, offset: 0x3A3F5, size: 0x8, addend: 0x0, symName: __ZNKSt3__13mapIifNS_4lessIiEENS_9allocatorINS_4pairIKifEEEEE4sizeB8ue170006Ev, symObjAddr: 0x550, symBinAddr: 0x100018F44, symSize: 0x28 }
  - { offsetInCU: 0x90C8, offset: 0x3A41B, size: 0x8, addend: 0x0, symName: __ZN5Grafo10generarDotERKNSt3__112basic_stringIcNS0_11char_traitsIcEENS0_9allocatorIcEEEE, symObjAddr: 0x5A4, symBinAddr: 0x100018F6C, symSize: 0x39C }
  - { offsetInCU: 0x9246, offset: 0x3A599, size: 0x8, addend: 0x0, symName: __ZNSt3__114basic_ofstreamIcNS_11char_traitsIcEEEC1ERKNS_12basic_stringIcS2_NS_9allocatorIcEEEEj, symObjAddr: 0x940, symBinAddr: 0x100019308, symSize: 0x17C }
  - { offsetInCU: 0x9290, offset: 0x3A5E3, size: 0x8, addend: 0x0, symName: __ZNKSt3__19basic_iosIcNS_11char_traitsIcEEEntB8ue170006Ev, symObjAddr: 0xABC, symBinAddr: 0x100019484, symSize: 0x28 }
  - { offsetInCU: 0x92B6, offset: 0x3A609, size: 0x8, addend: 0x0, symName: __ZNSt3__114basic_ofstreamIcNS_11char_traitsIcEEE5closeEv, symObjAddr: 0xC74, symBinAddr: 0x100019530, symSize: 0x58 }
  - { offsetInCU: 0x92E3, offset: 0x3A636, size: 0x8, addend: 0x0, symName: __ZNSt3__114basic_ofstreamIcNS_11char_traitsIcEEED1Ev, symObjAddr: 0xCCC, symBinAddr: 0x100019588, symSize: 0x70 }
  - { offsetInCU: 0x9310, offset: 0x3A663, size: 0x8, addend: 0x0, symName: __ZNSt3__114basic_ofstreamIcNS_11char_traitsIcEEED2Ev, symObjAddr: 0x3498, symBinAddr: 0x1000195F8, symSize: 0x9C }
  - { offsetInCU: 0x934A, offset: 0x3A69D, size: 0x8, addend: 0x0, symName: __ZTv0_n24_NSt3__114basic_ofstreamIcNS_11char_traitsIcEEED1Ev, symObjAddr: 0x3534, symBinAddr: 0x100019694, symSize: 0x28 }
  - { offsetInCU: 0x9367, offset: 0x3A6BA, size: 0x8, addend: 0x0, symName: __ZNSt3__16vectorI4NodoNS_9allocatorIS1_EEE22__construct_one_at_endB8ue170006IJRKS1_EEEvDpOT_, symObjAddr: 0x3C34, symBinAddr: 0x1000196BC, symSize: 0x98 }
  - { offsetInCU: 0x93B6, offset: 0x3A709, size: 0x8, addend: 0x0, symName: __ZNSt3__16vectorI4NodoNS_9allocatorIS1_EEE21__push_back_slow_pathIRKS1_EEvOT_, symObjAddr: 0x3CCC, symBinAddr: 0x100019754, symSize: 0xE0 }
  - { offsetInCU: 0x942D, offset: 0x3A780, size: 0x8, addend: 0x0, symName: __ZNSt3__114__split_bufferI4NodoRNS_9allocatorIS1_EEEC1EmmS4_, symObjAddr: 0x4058, symBinAddr: 0x100019834, symSize: 0x44 }
  - { offsetInCU: 0x9483, offset: 0x3A7D6, size: 0x8, addend: 0x0, symName: __ZNSt3__114__split_bufferI4NodoRNS_9allocatorIS1_EEED1Ev, symObjAddr: 0x41AC, symBinAddr: 0x100019988, symSize: 0x2C }
  - { offsetInCU: 0x94B9, offset: 0x3A80C, size: 0x8, addend: 0x0, symName: __ZNSt3__114__split_bufferI4NodoRNS_9allocatorIS1_EEEC2EmmS4_, symObjAddr: 0x4538, symBinAddr: 0x1000199B4, symSize: 0xE0 }
  - { offsetInCU: 0x952C, offset: 0x3A87F, size: 0x8, addend: 0x0, symName: __ZNSt3__117__compressed_pairIP4NodoRNS_9allocatorIS1_EEEC1B8ue170006IDnS5_EEOT_OT0_, symObjAddr: 0x4618, symBinAddr: 0x100019A94, symSize: 0x3C }
  - { offsetInCU: 0x9584, offset: 0x3A8D7, size: 0x8, addend: 0x0, symName: __ZNSt3__114__split_bufferI4NodoRNS_9allocatorIS1_EEE7__allocB8ue170006Ev, symObjAddr: 0x4694, symBinAddr: 0x100019AD0, symSize: 0x28 }
  - { offsetInCU: 0x95AA, offset: 0x3A8FD, size: 0x8, addend: 0x0, symName: __ZNSt3__114__split_bufferI4NodoRNS_9allocatorIS1_EEE9__end_capB8ue170006Ev, symObjAddr: 0x46BC, symBinAddr: 0x100019AF8, symSize: 0x28 }
  - { offsetInCU: 0x95D0, offset: 0x3A923, size: 0x8, addend: 0x0, symName: __ZNSt3__117__compressed_pairIP4NodoRNS_9allocatorIS1_EEEC2B8ue170006IDnS5_EEOT_OT0_, symObjAddr: 0x46E4, symBinAddr: 0x100019B20, symSize: 0x48 }
  - { offsetInCU: 0x9628, offset: 0x3A97B, size: 0x8, addend: 0x0, symName: __ZNSt3__122__compressed_pair_elemIRNS_9allocatorI4NodoEELi1ELb0EEC2B8ue170006IS4_vEEOT_, symObjAddr: 0x472C, symBinAddr: 0x100019B68, symSize: 0x20 }
  - { offsetInCU: 0x966A, offset: 0x3A9BD, size: 0x8, addend: 0x0, symName: __ZNSt3__117__compressed_pairIP4NodoRNS_9allocatorIS1_EEE6secondB8ue170006Ev, symObjAddr: 0x47D8, symBinAddr: 0x100019B88, symSize: 0x28 }
  - { offsetInCU: 0x9690, offset: 0x3A9E3, size: 0x8, addend: 0x0, symName: __ZNSt3__122__compressed_pair_elemIRNS_9allocatorI4NodoEELi1ELb0EE5__getB8ue170006Ev, symObjAddr: 0x4800, symBinAddr: 0x100019BB0, symSize: 0x18 }
  - { offsetInCU: 0x96B6, offset: 0x3AA09, size: 0x8, addend: 0x0, symName: __ZNSt3__117__compressed_pairIP4NodoRNS_9allocatorIS1_EEE5firstB8ue170006Ev, symObjAddr: 0x4818, symBinAddr: 0x100019BC8, symSize: 0x24 }
  - { offsetInCU: 0x96DC, offset: 0x3AA2F, size: 0x8, addend: 0x0, symName: __ZNSt3__129_AllocatorDestroyRangeReverseINS_9allocatorI4NodoEENS_16reverse_iteratorIPS2_EEEC1B8ue170006ERS3_RS6_S9_, symObjAddr: 0x4B0C, symBinAddr: 0x100019DA8, symSize: 0x44 }
  - { offsetInCU: 0x9733, offset: 0x3AA86, size: 0x8, addend: 0x0, symName: __ZNSt3__128__exception_guard_exceptionsINS_29_AllocatorDestroyRangeReverseINS_9allocatorI4NodoEENS_16reverse_iteratorIPS3_EEEEE10__completeB8ue170006Ev, symObjAddr: 0x4C04, symBinAddr: 0x100019DEC, symSize: 0x1C }
  - { offsetInCU: 0x9759, offset: 0x3AAAC, size: 0x8, addend: 0x0, symName: __ZNSt3__128__exception_guard_exceptionsINS_29_AllocatorDestroyRangeReverseINS_9allocatorI4NodoEENS_16reverse_iteratorIPS3_EEEEED1B8ue170006Ev, symObjAddr: 0x4C20, symBinAddr: 0x100019E08, symSize: 0x2C }
  - { offsetInCU: 0x9783, offset: 0x3AAD6, size: 0x8, addend: 0x0, symName: __ZNSt3__128__exception_guard_exceptionsINS_29_AllocatorDestroyRangeReverseINS_9allocatorI4NodoEENS_16reverse_iteratorIPS3_EEEEEC1B8ue170006ES8_, symObjAddr: 0x4C4C, symBinAddr: 0x100019E34, symSize: 0x34 }
  - { offsetInCU: 0x97BC, offset: 0x3AB0F, size: 0x8, addend: 0x0, symName: __ZNSt3__128__exception_guard_exceptionsINS_29_AllocatorDestroyRangeReverseINS_9allocatorI4NodoEENS_16reverse_iteratorIPS3_EEEEEC2B8ue170006ES8_, symObjAddr: 0x4C80, symBinAddr: 0x100019E68, symSize: 0x30 }
  - { offsetInCU: 0x97F5, offset: 0x3AB48, size: 0x8, addend: 0x0, symName: __ZNSt3__129_AllocatorDestroyRangeReverseINS_9allocatorI4NodoEENS_16reverse_iteratorIPS2_EEEC2B8ue170006ERS3_RS6_S9_, symObjAddr: 0x4CB0, symBinAddr: 0x100019E98, symSize: 0x38 }
  - { offsetInCU: 0x984C, offset: 0x3AB9F, size: 0x8, addend: 0x0, symName: __ZNSt3__128__exception_guard_exceptionsINS_29_AllocatorDestroyRangeReverseINS_9allocatorI4NodoEENS_16reverse_iteratorIPS3_EEEEED2B8ue170006Ev, symObjAddr: 0x4D58, symBinAddr: 0x100019ED0, symSize: 0x48 }
  - { offsetInCU: 0x9876, offset: 0x3ABC9, size: 0x8, addend: 0x0, symName: __ZNKSt3__129_AllocatorDestroyRangeReverseINS_9allocatorI4NodoEENS_16reverse_iteratorIPS2_EEEclB8ue170006Ev, symObjAddr: 0x4DA0, symBinAddr: 0x100019F18, symSize: 0xB4 }
  - { offsetInCU: 0x989D, offset: 0x3ABF0, size: 0x8, addend: 0x0, symName: __ZNSt3__116reverse_iteratorINS0_IP4NodoEEEC1B8ue170006ES3_, symObjAddr: 0x4EC4, symBinAddr: 0x10001A03C, symSize: 0x3C }
  - { offsetInCU: 0x98D5, offset: 0x3AC28, size: 0x8, addend: 0x0, symName: __ZNSt3__116reverse_iteratorINS0_IP4NodoEEEppB8ue170006Ev, symObjAddr: 0x4F84, symBinAddr: 0x10001A0FC, symSize: 0x30 }
  - { offsetInCU: 0x98FB, offset: 0x3AC4E, size: 0x8, addend: 0x0, symName: __ZNKSt3__116reverse_iteratorINS0_IP4NodoEEE4baseB8ue170006Ev, symObjAddr: 0x4FB4, symBinAddr: 0x10001A12C, symSize: 0x24 }
  - { offsetInCU: 0x9926, offset: 0x3AC79, size: 0x8, addend: 0x0, symName: __ZNSt3__119__to_address_helperINS_16reverse_iteratorINS1_IP4NodoEEEEvE6__callB8ue170006ERKS5_, symObjAddr: 0x4FD8, symBinAddr: 0x10001A150, symSize: 0x4C }
  - { offsetInCU: 0x9949, offset: 0x3AC9C, size: 0x8, addend: 0x0, symName: __ZNKSt3__116reverse_iteratorINS0_IP4NodoEEEptB8ue170006Ev, symObjAddr: 0x5024, symBinAddr: 0x10001A19C, symSize: 0x24 }
  - { offsetInCU: 0x996F, offset: 0x3ACC2, size: 0x8, addend: 0x0, symName: __ZNKSt3__116reverse_iteratorINS0_IP4NodoEEEdeB8ue170006Ev, symObjAddr: 0x5048, symBinAddr: 0x10001A1C0, symSize: 0x34 }
  - { offsetInCU: 0x99A3, offset: 0x3ACF6, size: 0x8, addend: 0x0, symName: __ZNSt3__116reverse_iteratorIP4NodoEmmB8ue170006Ev, symObjAddr: 0x507C, symBinAddr: 0x10001A1F4, symSize: 0x20 }
  - { offsetInCU: 0x99C9, offset: 0x3AD1C, size: 0x8, addend: 0x0, symName: __ZNSt3__116reverse_iteratorINS0_IP4NodoEEEC2B8ue170006ES3_, symObjAddr: 0x509C, symBinAddr: 0x10001A214, symSize: 0x2C }
  - { offsetInCU: 0x9A01, offset: 0x3AD54, size: 0x8, addend: 0x0, symName: __ZNSt3__114__split_bufferI4NodoRNS_9allocatorIS1_EEED2Ev, symObjAddr: 0x50F0, symBinAddr: 0x10001A240, symSize: 0x80 }
  - { offsetInCU: 0x9A2D, offset: 0x3AD80, size: 0x8, addend: 0x0, symName: __ZNSt3__114__split_bufferI4NodoRNS_9allocatorIS1_EEE5clearB8ue170006Ev, symObjAddr: 0x5170, symBinAddr: 0x10001A2C0, symSize: 0x28 }
  - { offsetInCU: 0x9A53, offset: 0x3ADA6, size: 0x8, addend: 0x0, symName: __ZNKSt3__114__split_bufferI4NodoRNS_9allocatorIS1_EEE8capacityB8ue170006Ev, symObjAddr: 0x5198, symBinAddr: 0x10001A2E8, symSize: 0x40 }
  - { offsetInCU: 0x9A79, offset: 0x3ADCC, size: 0x8, addend: 0x0, symName: __ZNSt3__114__split_bufferI4NodoRNS_9allocatorIS1_EEE17__destruct_at_endB8ue170006EPS1_, symObjAddr: 0x51D8, symBinAddr: 0x10001A328, symSize: 0x2C }
  - { offsetInCU: 0x9AAD, offset: 0x3AE00, size: 0x8, addend: 0x0, symName: __ZNSt3__114__split_bufferI4NodoRNS_9allocatorIS1_EEE17__destruct_at_endB8ue170006EPS1_NS_17integral_constantIbLb0EEE, symObjAddr: 0x5204, symBinAddr: 0x10001A354, symSize: 0x94 }
  - { offsetInCU: 0x9AED, offset: 0x3AE40, size: 0x8, addend: 0x0, symName: __ZNKSt3__114__split_bufferI4NodoRNS_9allocatorIS1_EEE9__end_capB8ue170006Ev, symObjAddr: 0x5298, symBinAddr: 0x10001A3E8, symSize: 0x28 }
  - { offsetInCU: 0x9B13, offset: 0x3AE66, size: 0x8, addend: 0x0, symName: __ZNKSt3__117__compressed_pairIP4NodoRNS_9allocatorIS1_EEE5firstB8ue170006Ev, symObjAddr: 0x52C0, symBinAddr: 0x10001A410, symSize: 0x24 }
  - { offsetInCU: 0x9B57, offset: 0x3AEAA, size: 0x8, addend: 0x0, symName: __ZNKSt3__16__treeINS_12__value_typeIifEENS_19__map_value_compareIiS2_NS_4lessIiEELb1EEENS_9allocatorIS2_EEE4sizeB8ue170006Ev, symObjAddr: 0x5E40, symBinAddr: 0x10001A434, symSize: 0x28 }
  - { offsetInCU: 0x9B7D, offset: 0x3AED0, size: 0x8, addend: 0x0, symName: __ZNKSt3__117__compressed_pairImNS_19__map_value_compareIiNS_12__value_typeIifEENS_4lessIiEELb1EEEE5firstB8ue170006Ev, symObjAddr: 0x5E68, symBinAddr: 0x10001A45C, symSize: 0x24 }
  - { offsetInCU: 0x9BA3, offset: 0x3AEF6, size: 0x8, addend: 0x0, symName: __ZNSt3__113basic_ostreamIcNS_11char_traitsIcEEEC2B8ue170006EPNS_15basic_streambufIcS2_EE, symObjAddr: 0x5EE4, symBinAddr: 0x10001A480, symSize: 0x60 }
  - { offsetInCU: 0x9BE8, offset: 0x3AF3B, size: 0x8, addend: 0x0, symName: __ZNSt3__113basic_filebufIcNS_11char_traitsIcEEE4openERKNS_12basic_stringIcS2_NS_9allocatorIcEEEEj, symObjAddr: 0x5F44, symBinAddr: 0x10001A4E0, symSize: 0x44 }
  - { offsetInCU: 0x9C2C, offset: 0x3AF7F, size: 0x8, addend: 0x0, symName: __ZNKSt3__112basic_stringIcNS_11char_traitsIcEENS_9allocatorIcEEE5c_strB8ue170006Ev, symObjAddr: 0x5FF0, symBinAddr: 0x10001A524, symSize: 0x24 }
  - { offsetInCU: 0x9C52, offset: 0x3AFA5, size: 0x8, addend: 0x0, symName: __ZNKSt3__19basic_iosIcNS_11char_traitsIcEEE4failB8ue170006Ev, symObjAddr: 0x6014, symBinAddr: 0x10001A548, symSize: 0x28 }
  - { offsetInCU: 0x9C78, offset: 0x3AFCB, size: 0x8, addend: 0x0, symName: __ZNKSt3__18ios_base4failB8ue170006Ev, symObjAddr: 0x603C, symBinAddr: 0x10001A570, symSize: 0x28 }
  - { offsetInCU: 0x9CA0, offset: 0x3AFF3, size: 0x8, addend: 0x0, symName: __ZNKSt3__112basic_stringIcNS_11char_traitsIcEENS_9allocatorIcEEE4sizeB8ue170006Ev, symObjAddr: 0x6064, symBinAddr: 0x10001A598, symSize: 0x54 }
  - { offsetInCU: 0x9CC6, offset: 0x3B019, size: 0x8, addend: 0x0, symName: __ZNKSt3__112basic_stringIcNS_11char_traitsIcEENS_9allocatorIcEEE15__get_long_sizeB8ue170006Ev, symObjAddr: 0x60B8, symBinAddr: 0x10001A5EC, symSize: 0x28 }
  - { offsetInCU: 0x9CEC, offset: 0x3B03F, size: 0x8, addend: 0x0, symName: __ZNKSt3__112basic_stringIcNS_11char_traitsIcEENS_9allocatorIcEEE16__get_short_sizeB8ue170006Ev, symObjAddr: 0x60E0, symBinAddr: 0x10001A614, symSize: 0x34 }
  - { offsetInCU: 0x9D12, offset: 0x3B065, size: 0x8, addend: 0x0, symName: __ZNKSt3__112basic_stringIcNS_11char_traitsIcEENS_9allocatorIcEEE7compareB8ue170006ERKS5_, symObjAddr: 0x6258, symBinAddr: 0x10001A648, symSize: 0x4C }
  - { offsetInCU: 0x9D49, offset: 0x3B09C, size: 0x8, addend: 0x0, symName: __ZNKSt3__112basic_stringIcNS_11char_traitsIcEENS_9allocatorIcEEE7compareINS_17basic_string_viewIcS2_EELi0EEEiRKT_, symObjAddr: 0x62A4, symBinAddr: 0x10001A694, symSize: 0x140 }
  - { offsetInCU: 0x9DCC, offset: 0x3B11F, size: 0x8, addend: 0x0, symName: __ZNKSt3__112basic_stringIcNS_11char_traitsIcEENS_9allocatorIcEEEcvNS_17basic_string_viewIcS2_EEB8ue170006Ev, symObjAddr: 0x63E4, symBinAddr: 0x10001A7D4, symSize: 0x50 }
  - { offsetInCU: 0x9DF2, offset: 0x3B145, size: 0x8, addend: 0x0, symName: __ZNKSt3__117basic_string_viewIcNS_11char_traitsIcEEE4sizeB8ue170006Ev, symObjAddr: 0x6434, symBinAddr: 0x10001A824, symSize: 0x18 }
  - { offsetInCU: 0x9E18, offset: 0x3B16B, size: 0x8, addend: 0x0, symName: __ZNSt3__111char_traitsIcE7compareB8ue170006EPKcS3_m, symObjAddr: 0x644C, symBinAddr: 0x10001A83C, symSize: 0x64 }
  - { offsetInCU: 0x9E57, offset: 0x3B1AA, size: 0x8, addend: 0x0, symName: __ZNKSt3__117basic_string_viewIcNS_11char_traitsIcEEE4dataB8ue170006Ev, symObjAddr: 0x64B0, symBinAddr: 0x10001A8A0, symSize: 0x18 }
  - { offsetInCU: 0x9E7D, offset: 0x3B1D0, size: 0x8, addend: 0x0, symName: __ZNSt3__117basic_string_viewIcNS_11char_traitsIcEEEC1B8ue170006EPKcm, symObjAddr: 0x64C8, symBinAddr: 0x10001A8B8, symSize: 0x3C }
  - { offsetInCU: 0x9EC5, offset: 0x3B218, size: 0x8, addend: 0x0, symName: __ZNSt3__117basic_string_viewIcNS_11char_traitsIcEEEC2B8ue170006EPKcm, symObjAddr: 0x6504, symBinAddr: 0x10001A8F4, symSize: 0x2C }
  - { offsetInCU: 0x86CF, offset: 0x4399D, size: 0x8, addend: 0x0, symName: __ZNSt3__17getlineB8ue170006IcNS_11char_traitsIcEENS_9allocatorIcEEEERNS_13basic_istreamIT_T0_EES9_RNS_12basic_stringIS6_S7_T1_EE, symObjAddr: 0xE2C, symBinAddr: 0x10001B6A4, symSize: 0x5C }
  - { offsetInCU: 0x8727, offset: 0x439F5, size: 0x8, addend: 0x0, symName: __ZNSt3__1rsB8ue170006IcNS_11char_traitsIcEENS_9allocatorIcEEEERNS_13basic_istreamIT_T0_EES9_RNS_12basic_stringIS6_S7_T1_EE, symObjAddr: 0x12E8, symBinAddr: 0x10001BA28, symSize: 0x310 }
  - { offsetInCU: 0x87F4, offset: 0x43AC2, size: 0x8, addend: 0x0, symName: __ZNSt3__1eqB8ue170006IcNS_11char_traitsIcEENS_9allocatorIcEEEEbRKNS_12basic_stringIT_T0_T1_EEPKS6_, symObjAddr: 0x15F8, symBinAddr: 0x10001BD38, symSize: 0xC0 }
  - { offsetInCU: 0x90E0, offset: 0x443AE, size: 0x8, addend: 0x0, symName: __ZNSt3__112__to_addressB8ue170006INS_12basic_stringIcNS_11char_traitsIcEENS_9allocatorIcEEEEEEPT_S8_, symObjAddr: 0x6AD8, symBinAddr: 0x10001C778, symSize: 0x14 }
  - { offsetInCU: 0x9115, offset: 0x443E3, size: 0x8, addend: 0x0, symName: __ZNSt3__17getlineB8ue170006IcNS_11char_traitsIcEENS_9allocatorIcEEEERNS_13basic_istreamIT_T0_EES9_RNS_12basic_stringIS6_S7_T1_EES6_, symObjAddr: 0x6CB4, symBinAddr: 0x10001C954, symSize: 0x238 }
  - { offsetInCU: 0x9408, offset: 0x446D6, size: 0x8, addend: 0x0, symName: __ZNSt3__119__allocate_at_leastB8ue170006INS_9allocatorINS_12basic_stringIcNS_11char_traitsIcEENS1_IcEEEEEEEENS_19__allocation_resultINS_16allocator_traitsIT_E7pointerEEERSA_m, symObjAddr: 0x7C6C, symBinAddr: 0x10001D67C, symSize: 0x40 }
  - { offsetInCU: 0x944B, offset: 0x44719, size: 0x8, addend: 0x0, symName: __ZNSt3__142__uninitialized_allocator_move_if_noexceptB8ue170006INS_9allocatorINS_12basic_stringIcNS_11char_traitsIcEENS1_IcEEEEEENS_16reverse_iteratorIPS6_EESA_SA_EET2_RT_T0_T1_SB_, symObjAddr: 0x7E54, symBinAddr: 0x10001D864, symSize: 0x134 }
  - { offsetInCU: 0x94EB, offset: 0x447B9, size: 0x8, addend: 0x0, symName: __ZNSt3__14swapB8ue170006IPNS_12basic_stringIcNS_11char_traitsIcEENS_9allocatorIcEEEEEEvRT_S9_, symObjAddr: 0x7FD4, symBinAddr: 0x10001D9E4, symSize: 0x3C }
  - { offsetInCU: 0x953C, offset: 0x4480A, size: 0x8, addend: 0x0, symName: __ZNSt3__122__make_exception_guardB8ue170006INS_29_AllocatorDestroyRangeReverseINS_9allocatorINS_12basic_stringIcNS_11char_traitsIcEENS2_IcEEEEEENS_16reverse_iteratorIPS7_EEEEEENS_28__exception_guard_exceptionsIT_EESE_, symObjAddr: 0x80D8, symBinAddr: 0x10001DAE8, symSize: 0x4C }
  - { offsetInCU: 0x9572, offset: 0x44840, size: 0x8, addend: 0x0, symName: __ZNSt3__1neB8ue170006IPNS_12basic_stringIcNS_11char_traitsIcEENS_9allocatorIcEEEES7_EEbRKNS_16reverse_iteratorIT_EERKNS8_IT0_EE, symObjAddr: 0x8168, symBinAddr: 0x10001DB78, symSize: 0x48 }
  - { offsetInCU: 0x95BE, offset: 0x4488C, size: 0x8, addend: 0x0, symName: __ZNSt3__112__to_addressB8ue170006INS_16reverse_iteratorIPNS_12basic_stringIcNS_11char_traitsIcEENS_9allocatorIcEEEEEEvEEu7__decayIDTclsr19__to_address_helperIT_EE6__callclsr3stdE7declvalIRKSA_EEEEESC_, symObjAddr: 0x81B0, symBinAddr: 0x10001DBC0, symSize: 0x24 }
  - { offsetInCU: 0x961D, offset: 0x448EB, size: 0x8, addend: 0x0, symName: __ZNSt3__119__allocator_destroyB8ue170006INS_9allocatorINS_12basic_stringIcNS_11char_traitsIcEENS1_IcEEEEEENS_16reverse_iteratorINS8_IPS6_EEEESB_EEvRT_T0_T1_, symObjAddr: 0x846C, symBinAddr: 0x10001DE7C, symSize: 0x70 }
  - { offsetInCU: 0x9682, offset: 0x44950, size: 0x8, addend: 0x0, symName: __ZNSt3__1neB8ue170006INS_16reverse_iteratorIPNS_12basic_stringIcNS_11char_traitsIcEENS_9allocatorIcEEEEEES9_EEbRKNS1_IT_EERKNS1_IT0_EE, symObjAddr: 0x8518, symBinAddr: 0x10001DF28, symSize: 0x60 }
  - { offsetInCU: 0x96CE, offset: 0x4499C, size: 0x8, addend: 0x0, symName: __ZNSt3__112__to_addressB8ue170006INS_16reverse_iteratorINS1_IPNS_12basic_stringIcNS_11char_traitsIcEENS_9allocatorIcEEEEEEEEvEEu7__decayIDTclsr19__to_address_helperIT_EE6__callclsr3stdE7declvalIRKSB_EEEEESD_, symObjAddr: 0x8578, symBinAddr: 0x10001DF88, symSize: 0x24 }
  - { offsetInCU: 0x972D, offset: 0x449FB, size: 0x8, addend: 0x0, symName: __ZNSt3__1miB8ue170006IPKNS_12basic_stringIcNS_11char_traitsIcEENS_9allocatorIcEEEES8_EENS_11__wrap_iterIT_E15difference_typeERKSB_RKNS9_IT0_EE, symObjAddr: 0x8A1C, symBinAddr: 0x10001E42C, symSize: 0x48 }
  - { offsetInCU: 0x9779, offset: 0x44A47, size: 0x8, addend: 0x0, symName: __ZNSt3__14moveB8ue170006IPNS_12basic_stringIcNS_11char_traitsIcEENS_9allocatorIcEEEES7_EET0_T_S9_S8_, symObjAddr: 0x8ADC, symBinAddr: 0x10001E4EC, symSize: 0x40 }
  - { offsetInCU: 0x97D3, offset: 0x44AA1, size: 0x8, addend: 0x0, symName: __ZNSt3__16__moveB8ue170006INS_17_ClassicAlgPolicyEPNS_12basic_stringIcNS_11char_traitsIcEENS_9allocatorIcEEEES8_S8_EENS_4pairIT0_T2_EESA_T1_SB_, symObjAddr: 0x8CB8, symBinAddr: 0x10001E6C8, symSize: 0x44 }
  - { offsetInCU: 0x983F, offset: 0x44B0D, size: 0x8, addend: 0x0, symName: __ZNSt3__123__dispatch_copy_or_moveB8ue170006INS_17_ClassicAlgPolicyENS_11__move_loopIS1_EENS_14__move_trivialEPNS_12basic_stringIcNS_11char_traitsIcEENS_9allocatorIcEEEESB_SB_EENS_4pairIT2_T4_EESD_T3_SE_, symObjAddr: 0x8CFC, symBinAddr: 0x10001E70C, symSize: 0x44 }
  - { offsetInCU: 0x98BD, offset: 0x44B8B, size: 0x8, addend: 0x0, symName: __ZNSt3__121__unwrap_and_dispatchB8ue170006INS_10__overloadINS_11__move_loopINS_17_ClassicAlgPolicyEEENS_14__move_trivialEEEPNS_12basic_stringIcNS_11char_traitsIcEENS_9allocatorIcEEEESD_SD_Li0EEENS_4pairIT0_T2_EESF_T1_SG_, symObjAddr: 0x8D40, symBinAddr: 0x10001E750, symSize: 0xB4 }
  - { offsetInCU: 0x994B, offset: 0x44C19, size: 0x8, addend: 0x0, symName: __ZNSt3__114__unwrap_rangeB8ue170006IPNS_12basic_stringIcNS_11char_traitsIcEENS_9allocatorIcEEEES7_EENS_4pairIT0_S9_EET_SB_, symObjAddr: 0x8DF4, symBinAddr: 0x10001E804, symSize: 0x60 }
  - { offsetInCU: 0x9A96, offset: 0x44D64, size: 0x8, addend: 0x0, symName: __ZNSt3__113__unwrap_iterB8ue170006IPNS_12basic_stringIcNS_11char_traitsIcEENS_9allocatorIcEEEENS_18__unwrap_iter_implIS7_Lb1EEELi0EEEDTclsrT0_8__unwrapclsr3stdE7declvalIT_EEEESB_, symObjAddr: 0x8EE4, symBinAddr: 0x10001E8F4, symSize: 0x24 }
  - { offsetInCU: 0x9ADA, offset: 0x44DA8, size: 0x8, addend: 0x0, symName: __ZNSt3__19make_pairB8ue170006IPNS_12basic_stringIcNS_11char_traitsIcEENS_9allocatorIcEEEES7_EENS_4pairINS_18__unwrap_ref_decayIT_E4typeENS9_IT0_E4typeEEEOSA_OSD_, symObjAddr: 0x8F08, symBinAddr: 0x10001E918, symSize: 0x38 }
  - { offsetInCU: 0x9B29, offset: 0x44DF7, size: 0x8, addend: 0x0, symName: __ZNSt3__114__rewrap_rangeB8ue170006IPNS_12basic_stringIcNS_11char_traitsIcEENS_9allocatorIcEEEES7_EET_S8_T0_, symObjAddr: 0x8F40, symBinAddr: 0x10001E950, symSize: 0x2C }
  - { offsetInCU: 0x9B75, offset: 0x44E43, size: 0x8, addend: 0x0, symName: __ZNSt3__113__rewrap_iterB8ue170006IPNS_12basic_stringIcNS_11char_traitsIcEENS_9allocatorIcEEEES7_NS_18__unwrap_iter_implIS7_Lb1EEEEET_SA_T0_, symObjAddr: 0x8F6C, symBinAddr: 0x10001E97C, symSize: 0x50 }
  - { offsetInCU: 0x9C87, offset: 0x44F55, size: 0x8, addend: 0x0, symName: __ZNSt3__122__make_exception_guardB8ue170006INS_6vectorINS_12basic_stringIcNS_11char_traitsIcEENS_9allocatorIcEEEENS5_IS7_EEE16__destroy_vectorEEENS_28__exception_guard_exceptionsIT_EESC_, symObjAddr: 0x9328, symBinAddr: 0x10001ED38, symSize: 0x40 }
  - { offsetInCU: 0x9CBC, offset: 0x44F8A, size: 0x8, addend: 0x0, symName: __ZNSt3__130__uninitialized_allocator_copyB8ue170006INS_9allocatorINS_12basic_stringIcNS_11char_traitsIcEENS1_IcEEEEEEPS6_S8_S8_EET2_RT_T0_T1_S9_, symObjAddr: 0x9550, symBinAddr: 0x10001EF60, symSize: 0x80 }
  - { offsetInCU: 0x9D59, offset: 0x45027, size: 0x8, addend: 0x0, symName: __ZNSt3__135__uninitialized_allocator_copy_implB8ue170006INS_9allocatorINS_12basic_stringIcNS_11char_traitsIcEENS1_IcEEEEEEPS6_S8_S8_EET2_RT_T0_T1_S9_, symObjAddr: 0x95D0, symBinAddr: 0x10001EFE0, symSize: 0xFC }
  - { offsetInCU: 0x9DF7, offset: 0x450C5, size: 0x8, addend: 0x0, symName: __ZNSt3__122__make_exception_guardB8ue170006INS_29_AllocatorDestroyRangeReverseINS_9allocatorINS_12basic_stringIcNS_11char_traitsIcEENS2_IcEEEEEEPS7_EEEENS_28__exception_guard_exceptionsIT_EESC_, symObjAddr: 0x96CC, symBinAddr: 0x10001F0DC, symSize: 0x4C }
  - { offsetInCU: 0x9E2D, offset: 0x450FB, size: 0x8, addend: 0x0, symName: __ZNSt3__119__allocator_destroyB8ue170006INS_9allocatorINS_12basic_stringIcNS_11char_traitsIcEENS1_IcEEEEEENS_16reverse_iteratorIPS6_EESA_EEvRT_T0_T1_, symObjAddr: 0x9954, symBinAddr: 0x10001F364, symSize: 0x70 }
  - { offsetInCU: 0xA583, offset: 0x45851, size: 0x8, addend: 0x0, symName: __ZNSt3__16vectorINS_12basic_stringIcNS_11char_traitsIcEENS_9allocatorIcEEEENS4_IS6_EEE26__swap_out_circular_bufferERNS_14__split_bufferIS6_RS7_EE, symObjAddr: 0x76B4, symBinAddr: 0x10001D2F8, symSize: 0x110 }
  - { offsetInCU: 0xC4CE, offset: 0x4779C, size: 0x8, addend: 0x0, symName: _main, symObjAddr: 0x0, symBinAddr: 0x10001A920, symSize: 0xA00 }
  - { offsetInCU: 0xC6F4, offset: 0x479C2, size: 0x8, addend: 0x0, symName: __ZNSt3__114basic_ifstreamIcNS_11char_traitsIcEEEC1EPKcj, symObjAddr: 0xA48, symBinAddr: 0x10001B320, symSize: 0x17C }
  - { offsetInCU: 0xC758, offset: 0x47A26, size: 0x8, addend: 0x0, symName: __ZNSt3__114basic_ofstreamIcNS_11char_traitsIcEEEC1EPKcj, symObjAddr: 0xBC4, symBinAddr: 0x10001B49C, symSize: 0x17C }
  - { offsetInCU: 0xC7A7, offset: 0x47A75, size: 0x8, addend: 0x0, symName: __ZNSt3__112basic_stringIcNS_11char_traitsIcEENS_9allocatorIcEEEC1B8ue170006ILi0EEEPKc, symObjAddr: 0xD68, symBinAddr: 0x10001B618, symSize: 0x34 }
  - { offsetInCU: 0xC7E6, offset: 0x47AB4, size: 0x8, addend: 0x0, symName: __ZNSt3__16vectorINS_12basic_stringIcNS_11char_traitsIcEENS_9allocatorIcEEEENS4_IS6_EEEC1B8ue170006Ev, symObjAddr: 0xDD4, symBinAddr: 0x10001B64C, symSize: 0x2C }
  - { offsetInCU: 0xC810, offset: 0x47ADE, size: 0x8, addend: 0x0, symName: __ZNKSt3__114basic_ifstreamIcNS_11char_traitsIcEEE7is_openEv, symObjAddr: 0xE00, symBinAddr: 0x10001B678, symSize: 0x2C }
  - { offsetInCU: 0xC838, offset: 0x47B06, size: 0x8, addend: 0x0, symName: __ZNKSt3__19basic_iosIcNS_11char_traitsIcEEEcvPvB8ue170006Ev, symObjAddr: 0xE88, symBinAddr: 0x10001B700, symSize: 0x4C }
  - { offsetInCU: 0xC85E, offset: 0x47B2C, size: 0x8, addend: 0x0, symName: __ZNSt3__112basic_stringIcNS_11char_traitsIcEENS_9allocatorIcEEEixB8ue170006Em, symObjAddr: 0xF28, symBinAddr: 0x10001B74C, symSize: 0x30 }
  - { offsetInCU: 0xC893, offset: 0x47B61, size: 0x8, addend: 0x0, symName: __ZNSt3__112basic_stringIcNS_11char_traitsIcEENS_9allocatorIcEEEpLB8ue170006Ec, symObjAddr: 0xF58, symBinAddr: 0x10001B77C, symSize: 0x34 }
  - { offsetInCU: 0xC8C8, offset: 0x47B96, size: 0x8, addend: 0x0, symName: __ZNSt3__16vectorINS_12basic_stringIcNS_11char_traitsIcEENS_9allocatorIcEEEENS4_IS6_EEE9push_backB8ue170006ERKS6_, symObjAddr: 0xF8C, symBinAddr: 0x10001B7B0, symSize: 0x6C }
  - { offsetInCU: 0xC8FF, offset: 0x47BCD, size: 0x8, addend: 0x0, symName: __ZNSt3__112basic_stringIcNS_11char_traitsIcEENS_9allocatorIcEEE5clearB8ue170006Ev, symObjAddr: 0xFF8, symBinAddr: 0x10001B81C, symSize: 0x78 }
  - { offsetInCU: 0xC927, offset: 0x47BF5, size: 0x8, addend: 0x0, symName: __ZNSt3__16vectorINS_12basic_stringIcNS_11char_traitsIcEENS_9allocatorIcEEEENS4_IS6_EEEixB8ue170006Em, symObjAddr: 0x1070, symBinAddr: 0x10001B894, symSize: 0x2C }
  - { offsetInCU: 0xC95E, offset: 0x47C2C, size: 0x8, addend: 0x0, symName: __ZNSt3__16vectorINS_12basic_stringIcNS_11char_traitsIcEENS_9allocatorIcEEEENS4_IS6_EEE5eraseB8ue170006ENS_11__wrap_iterIPKS6_EE, symObjAddr: 0x109C, symBinAddr: 0x10001B8C0, symSize: 0x9C }
  - { offsetInCU: 0xC9B3, offset: 0x47C81, size: 0x8, addend: 0x0, symName: __ZNSt3__16vectorINS_12basic_stringIcNS_11char_traitsIcEENS_9allocatorIcEEEENS4_IS6_EEE5beginB8ue170006Ev, symObjAddr: 0x1138, symBinAddr: 0x10001B95C, symSize: 0x30 }
  - { offsetInCU: 0xC9E5, offset: 0x47CB3, size: 0x8, addend: 0x0, symName: __ZNSt3__111__wrap_iterIPKNS_12basic_stringIcNS_11char_traitsIcEENS_9allocatorIcEEEEEC1B8ue170006IPS6_EERKNS0_IT_EEPNS_9enable_ifIXsr14is_convertibleISC_S8_EE5valueEvE4typeE, symObjAddr: 0x1168, symBinAddr: 0x10001B98C, symSize: 0x3C }
  - { offsetInCU: 0xCA30, offset: 0x47CFE, size: 0x8, addend: 0x0, symName: __ZNSt3__16vectorINS_12basic_stringIcNS_11char_traitsIcEENS_9allocatorIcEEEENS4_IS6_EEEC1ERKS8_, symObjAddr: 0x11A4, symBinAddr: 0x10001B9C8, symSize: 0x34 }
  - { offsetInCU: 0xCA6B, offset: 0x47D39, size: 0x8, addend: 0x0, symName: __ZNSt3__16vectorINS_12basic_stringIcNS_11char_traitsIcEENS_9allocatorIcEEEENS4_IS6_EEED1B8ue170006Ev, symObjAddr: 0x11D8, symBinAddr: 0x10001B9FC, symSize: 0x2C }
  - { offsetInCU: 0xCD2D, offset: 0x47FFB, size: 0x8, addend: 0x0, symName: __ZN3BFSD1Ev, symObjAddr: 0x1704, symBinAddr: 0x10001BDF8, symSize: 0x2C }
  - { offsetInCU: 0xCE8B, offset: 0x48159, size: 0x8, addend: 0x0, symName: __ZN3DFSD1Ev, symObjAddr: 0x1730, symBinAddr: 0x10001BE24, symSize: 0x2C }
  - { offsetInCU: 0xCEC1, offset: 0x4818F, size: 0x8, addend: 0x0, symName: __ZNSt3__114basic_ifstreamIcNS_11char_traitsIcEEED1Ev, symObjAddr: 0x17F8, symBinAddr: 0x10001BE50, symSize: 0x70 }
  - { offsetInCU: 0xCEF4, offset: 0x481C2, size: 0x8, addend: 0x0, symName: __ZN3BFSD2Ev, symObjAddr: 0x3FDC, symBinAddr: 0x10001BEC0, symSize: 0x168 }
  - { offsetInCU: 0xCF2A, offset: 0x481F8, size: 0x8, addend: 0x0, symName: __ZN3DFSD2Ev, symObjAddr: 0x4B94, symBinAddr: 0x10001C028, symSize: 0x168 }
  - { offsetInCU: 0xCF56, offset: 0x48224, size: 0x8, addend: 0x0, symName: __ZNSt3__114basic_ifstreamIcNS_11char_traitsIcEEED2Ev, symObjAddr: 0x53C0, symBinAddr: 0x10001C190, symSize: 0x9C }
  - { offsetInCU: 0xCF90, offset: 0x4825E, size: 0x8, addend: 0x0, symName: __ZTv0_n24_NSt3__114basic_ifstreamIcNS_11char_traitsIcEEED1Ev, symObjAddr: 0x545C, symBinAddr: 0x10001C22C, symSize: 0x28 }
  - { offsetInCU: 0xCFCA, offset: 0x48298, size: 0x8, addend: 0x0, symName: __ZNSt3__112basic_stringIcNS_11char_traitsIcEENS_9allocatorIcEEEC2B8ue170006ILi0EEEPKc, symObjAddr: 0x61A0, symBinAddr: 0x10001C254, symSize: 0x58 }
  - { offsetInCU: 0xD009, offset: 0x482D7, size: 0x8, addend: 0x0, symName: __ZNSt3__16vectorINS_12basic_stringIcNS_11char_traitsIcEENS_9allocatorIcEEEENS4_IS6_EEEC2B8ue170006Ev, symObjAddr: 0x660C, symBinAddr: 0x10001C2AC, symSize: 0x44 }
  - { offsetInCU: 0xD039, offset: 0x48307, size: 0x8, addend: 0x0, symName: __ZNSt3__117__compressed_pairIPNS_12basic_stringIcNS_11char_traitsIcEENS_9allocatorIcEEEENS4_IS6_EEEC1B8ue170006IDnNS_18__default_init_tagEEEOT_OT0_, symObjAddr: 0x6650, symBinAddr: 0x10001C2F0, symSize: 0x3C }
  - { offsetInCU: 0xD091, offset: 0x4835F, size: 0x8, addend: 0x0, symName: __ZNSt3__117__compressed_pairIPNS_12basic_stringIcNS_11char_traitsIcEENS_9allocatorIcEEEENS4_IS6_EEEC2B8ue170006IDnNS_18__default_init_tagEEEOT_OT0_, symObjAddr: 0x668C, symBinAddr: 0x10001C32C, symSize: 0x40 }
  - { offsetInCU: 0xD0E9, offset: 0x483B7, size: 0x8, addend: 0x0, symName: __ZNSt3__122__compressed_pair_elemIPNS_12basic_stringIcNS_11char_traitsIcEENS_9allocatorIcEEEELi0ELb0EEC2B8ue170006IDnvEEOT_, symObjAddr: 0x66CC, symBinAddr: 0x10001C36C, symSize: 0x1C }
  - { offsetInCU: 0xD12B, offset: 0x483F9, size: 0x8, addend: 0x0, symName: __ZNSt3__122__compressed_pair_elemINS_9allocatorINS_12basic_stringIcNS_11char_traitsIcEENS1_IcEEEEEELi1ELb1EEC2B8ue170006ENS_18__default_init_tagE, symObjAddr: 0x66E8, symBinAddr: 0x10001C388, symSize: 0x2C }
  - { offsetInCU: 0xD15F, offset: 0x4842D, size: 0x8, addend: 0x0, symName: __ZNSt3__19allocatorINS_12basic_stringIcNS_11char_traitsIcEENS0_IcEEEEEC2B8ue170006Ev, symObjAddr: 0x6714, symBinAddr: 0x10001C3B4, symSize: 0x2C }
  - { offsetInCU: 0xD189, offset: 0x48457, size: 0x8, addend: 0x0, symName: __ZNSt3__116__non_trivial_ifILb1ENS_9allocatorINS_12basic_stringIcNS_11char_traitsIcEENS1_IcEEEEEEEC2B8ue170006Ev, symObjAddr: 0x6740, symBinAddr: 0x10001C3E0, symSize: 0x14 }
  - { offsetInCU: 0xD1B3, offset: 0x48481, size: 0x8, addend: 0x0, symName: __ZNSt3__16vectorINS_12basic_stringIcNS_11char_traitsIcEENS_9allocatorIcEEEENS4_IS6_EEED2B8ue170006Ev, symObjAddr: 0x6754, symBinAddr: 0x10001C3F4, symSize: 0x3C }
  - { offsetInCU: 0xD1DD, offset: 0x484AB, size: 0x8, addend: 0x0, symName: __ZNSt3__16vectorINS_12basic_stringIcNS_11char_traitsIcEENS_9allocatorIcEEEENS4_IS6_EEE16__destroy_vectorC1B8ue170006ERS8_, symObjAddr: 0x6790, symBinAddr: 0x10001C430, symSize: 0x34 }
  - { offsetInCU: 0xD216, offset: 0x484E4, size: 0x8, addend: 0x0, symName: __ZNSt3__16vectorINS_12basic_stringIcNS_11char_traitsIcEENS_9allocatorIcEEEENS4_IS6_EEE16__destroy_vectorclB8ue170006Ev, symObjAddr: 0x67C4, symBinAddr: 0x10001C464, symSize: 0x90 }
  - { offsetInCU: 0xD23C, offset: 0x4850A, size: 0x8, addend: 0x0, symName: __ZNSt3__16vectorINS_12basic_stringIcNS_11char_traitsIcEENS_9allocatorIcEEEENS4_IS6_EEE16__destroy_vectorC2B8ue170006ERS8_, symObjAddr: 0x6854, symBinAddr: 0x10001C4F4, symSize: 0x20 }
  - { offsetInCU: 0xD275, offset: 0x48543, size: 0x8, addend: 0x0, symName: __ZNSt3__16vectorINS_12basic_stringIcNS_11char_traitsIcEENS_9allocatorIcEEEENS4_IS6_EEE7__clearB8ue170006Ev, symObjAddr: 0x6874, symBinAddr: 0x10001C514, symSize: 0x28 }
  - { offsetInCU: 0xD29B, offset: 0x48569, size: 0x8, addend: 0x0, symName: __ZNKSt3__16vectorINS_12basic_stringIcNS_11char_traitsIcEENS_9allocatorIcEEEENS4_IS6_EEE17__annotate_deleteB8ue170006Ev, symObjAddr: 0x689C, symBinAddr: 0x10001C53C, symSize: 0xD4 }
  - { offsetInCU: 0xD2C1, offset: 0x4858F, size: 0x8, addend: 0x0, symName: __ZNSt3__116allocator_traitsINS_9allocatorINS_12basic_stringIcNS_11char_traitsIcEENS1_IcEEEEEEE10deallocateB8ue170006ERS7_PS6_m, symObjAddr: 0x6970, symBinAddr: 0x10001C610, symSize: 0x34 }
  - { offsetInCU: 0xD303, offset: 0x485D1, size: 0x8, addend: 0x0, symName: __ZNSt3__16vectorINS_12basic_stringIcNS_11char_traitsIcEENS_9allocatorIcEEEENS4_IS6_EEE7__allocB8ue170006Ev, symObjAddr: 0x69A4, symBinAddr: 0x10001C644, symSize: 0x28 }
  - { offsetInCU: 0xD329, offset: 0x485F7, size: 0x8, addend: 0x0, symName: __ZNKSt3__16vectorINS_12basic_stringIcNS_11char_traitsIcEENS_9allocatorIcEEEENS4_IS6_EEE8capacityB8ue170006Ev, symObjAddr: 0x69CC, symBinAddr: 0x10001C66C, symSize: 0x40 }
  - { offsetInCU: 0xD34F, offset: 0x4861D, size: 0x8, addend: 0x0, symName: __ZNSt3__16vectorINS_12basic_stringIcNS_11char_traitsIcEENS_9allocatorIcEEEENS4_IS6_EEE22__base_destruct_at_endB8ue170006EPS6_, symObjAddr: 0x6A0C, symBinAddr: 0x10001C6AC, symSize: 0xA0 }
  - { offsetInCU: 0xD393, offset: 0x48661, size: 0x8, addend: 0x0, symName: __ZNSt3__116allocator_traitsINS_9allocatorINS_12basic_stringIcNS_11char_traitsIcEENS1_IcEEEEEEE7destroyB8ue170006IS6_vEEvRS7_PT_, symObjAddr: 0x6AAC, symBinAddr: 0x10001C74C, symSize: 0x2C }
  - { offsetInCU: 0xD3D0, offset: 0x4869E, size: 0x8, addend: 0x0, symName: __ZNSt3__19allocatorINS_12basic_stringIcNS_11char_traitsIcEENS0_IcEEEEE7destroyB8ue170006EPS5_, symObjAddr: 0x6AEC, symBinAddr: 0x10001C78C, symSize: 0x28 }
  - { offsetInCU: 0xD404, offset: 0x486D2, size: 0x8, addend: 0x0, symName: __ZNKSt3__16vectorINS_12basic_stringIcNS_11char_traitsIcEENS_9allocatorIcEEEENS4_IS6_EEE31__annotate_contiguous_containerB8ue170006EPKvSA_SA_SA_, symObjAddr: 0x6B14, symBinAddr: 0x10001C7B4, symSize: 0x20 }
  - { offsetInCU: 0xD456, offset: 0x48724, size: 0x8, addend: 0x0, symName: __ZNKSt3__16vectorINS_12basic_stringIcNS_11char_traitsIcEENS_9allocatorIcEEEENS4_IS6_EEE4dataB8ue170006Ev, symObjAddr: 0x6B34, symBinAddr: 0x10001C7D4, symSize: 0x28 }
  - { offsetInCU: 0xD47C, offset: 0x4874A, size: 0x8, addend: 0x0, symName: __ZNKSt3__16vectorINS_12basic_stringIcNS_11char_traitsIcEENS_9allocatorIcEEEENS4_IS6_EEE4sizeB8ue170006Ev, symObjAddr: 0x6B5C, symBinAddr: 0x10001C7FC, symSize: 0x28 }
  - { offsetInCU: 0xD4A2, offset: 0x48770, size: 0x8, addend: 0x0, symName: __ZNSt3__19allocatorINS_12basic_stringIcNS_11char_traitsIcEENS0_IcEEEEE10deallocateB8ue170006EPS5_m, symObjAddr: 0x6B84, symBinAddr: 0x10001C824, symSize: 0x74 }
  - { offsetInCU: 0xD4E4, offset: 0x487B2, size: 0x8, addend: 0x0, symName: __ZNSt3__117__compressed_pairIPNS_12basic_stringIcNS_11char_traitsIcEENS_9allocatorIcEEEENS4_IS6_EEE6secondB8ue170006Ev, symObjAddr: 0x6BF8, symBinAddr: 0x10001C898, symSize: 0x24 }
  - { offsetInCU: 0xD50A, offset: 0x487D8, size: 0x8, addend: 0x0, symName: __ZNSt3__122__compressed_pair_elemINS_9allocatorINS_12basic_stringIcNS_11char_traitsIcEENS1_IcEEEEEELi1ELb1EE5__getB8ue170006Ev, symObjAddr: 0x6C1C, symBinAddr: 0x10001C8BC, symSize: 0x14 }
  - { offsetInCU: 0xD530, offset: 0x487FE, size: 0x8, addend: 0x0, symName: __ZNKSt3__16vectorINS_12basic_stringIcNS_11char_traitsIcEENS_9allocatorIcEEEENS4_IS6_EEE9__end_capB8ue170006Ev, symObjAddr: 0x6C30, symBinAddr: 0x10001C8D0, symSize: 0x28 }
  - { offsetInCU: 0xD556, offset: 0x48824, size: 0x8, addend: 0x0, symName: __ZNKSt3__117__compressed_pairIPNS_12basic_stringIcNS_11char_traitsIcEENS_9allocatorIcEEEENS4_IS6_EEE5firstB8ue170006Ev, symObjAddr: 0x6C58, symBinAddr: 0x10001C8F8, symSize: 0x24 }
  - { offsetInCU: 0xD57C, offset: 0x4884A, size: 0x8, addend: 0x0, symName: __ZNKSt3__122__compressed_pair_elemIPNS_12basic_stringIcNS_11char_traitsIcEENS_9allocatorIcEEEELi0ELb0EE5__getB8ue170006Ev, symObjAddr: 0x6C7C, symBinAddr: 0x10001C91C, symSize: 0x14 }
  - { offsetInCU: 0xD5A2, offset: 0x48870, size: 0x8, addend: 0x0, symName: __ZNKSt3__113basic_filebufIcNS_11char_traitsIcEEE7is_openEv, symObjAddr: 0x6C90, symBinAddr: 0x10001C930, symSize: 0x24 }
  - { offsetInCU: 0xD5E8, offset: 0x488B6, size: 0x8, addend: 0x0, symName: __ZNKSt3__113basic_istreamIcNS_11char_traitsIcEEE6sentrycvbB8ue170006Ev, symObjAddr: 0x6EEC, symBinAddr: 0x10001CB8C, symSize: 0x1C }
  - { offsetInCU: 0xD60E, offset: 0x488DC, size: 0x8, addend: 0x0, symName: __ZNSt3__115basic_streambufIcNS_11char_traitsIcEEE6sbumpcB8ue170006Ev, symObjAddr: 0x6F08, symBinAddr: 0x10001CBA8, symSize: 0x78 }
  - { offsetInCU: 0xD634, offset: 0x48902, size: 0x8, addend: 0x0, symName: __ZNSt3__111char_traitsIcE12to_char_typeB8ue170006Ei, symObjAddr: 0x6F80, symBinAddr: 0x10001CC20, symSize: 0x18 }
  - { offsetInCU: 0xD657, offset: 0x48925, size: 0x8, addend: 0x0, symName: __ZNSt3__111char_traitsIcE2eqEcc, symObjAddr: 0x6F98, symBinAddr: 0x10001CC38, symSize: 0x28 }
  - { offsetInCU: 0xD688, offset: 0x48956, size: 0x8, addend: 0x0, symName: __ZNKSt3__112basic_stringIcNS_11char_traitsIcEENS_9allocatorIcEEE8max_sizeB8ue170006Ev, symObjAddr: 0x6FC0, symBinAddr: 0x10001CC60, symSize: 0xAC }
  - { offsetInCU: 0xD6DA, offset: 0x489A8, size: 0x8, addend: 0x0, symName: __ZNSt3__18ios_base18__setstate_nothrowB8ue170006Ej, symObjAddr: 0x706C, symBinAddr: 0x10001CD0C, symSize: 0x64 }
  - { offsetInCU: 0xD70F, offset: 0x489DD, size: 0x8, addend: 0x0, symName: __ZNKSt3__19basic_iosIcNS_11char_traitsIcEEE10exceptionsB8ue170006Ev, symObjAddr: 0x70D0, symBinAddr: 0x10001CD70, symSize: 0x24 }
  - { offsetInCU: 0xD735, offset: 0x48A03, size: 0x8, addend: 0x0, symName: __ZNSt3__111char_traitsIcE11to_int_typeB8ue170006Ec, symObjAddr: 0x70F4, symBinAddr: 0x10001CD94, symSize: 0x14 }
  - { offsetInCU: 0xD759, offset: 0x48A27, size: 0x8, addend: 0x0, symName: __ZNKSt3__112basic_stringIcNS_11char_traitsIcEENS_9allocatorIcEEE7__allocB8ue170006Ev, symObjAddr: 0x7108, symBinAddr: 0x10001CDA8, symSize: 0x24 }
  - { offsetInCU: 0xD77F, offset: 0x48A4D, size: 0x8, addend: 0x0, symName: __ZNSt3__114numeric_limitsImE3maxB8ue170006Ev, symObjAddr: 0x712C, symBinAddr: 0x10001CDCC, symSize: 0x14 }
  - { offsetInCU: 0xD793, offset: 0x48A61, size: 0x8, addend: 0x0, symName: __ZNKSt3__117__compressed_pairINS_12basic_stringIcNS_11char_traitsIcEENS_9allocatorIcEEE5__repES5_E6secondB8ue170006Ev, symObjAddr: 0x7140, symBinAddr: 0x10001CDE0, symSize: 0x24 }
  - { offsetInCU: 0xD7B9, offset: 0x48A87, size: 0x8, addend: 0x0, symName: __ZNKSt3__122__compressed_pair_elemINS_9allocatorIcEELi1ELb1EE5__getB8ue170006Ev, symObjAddr: 0x7164, symBinAddr: 0x10001CE04, symSize: 0x14 }
  - { offsetInCU: 0xD7DF, offset: 0x48AAD, size: 0x8, addend: 0x0, symName: __ZNSt3__123__libcpp_numeric_limitsImLb1EE3maxB8ue170006Ev, symObjAddr: 0x7178, symBinAddr: 0x10001CE18, symSize: 0x8 }
  - { offsetInCU: 0xD7F3, offset: 0x48AC1, size: 0x8, addend: 0x0, symName: __ZNKSt3__18ios_base10exceptionsB8ue170006Ev, symObjAddr: 0x7180, symBinAddr: 0x10001CE20, symSize: 0x18 }
  - { offsetInCU: 0xD81B, offset: 0x48AE9, size: 0x8, addend: 0x0, symName: __ZNSt3__112basic_stringIcNS_11char_traitsIcEENS_9allocatorIcEEE13__get_pointerB8ue170006Ev, symObjAddr: 0x71F4, symBinAddr: 0x10001CE38, symSize: 0x54 }
  - { offsetInCU: 0xD841, offset: 0x48B0F, size: 0x8, addend: 0x0, symName: __ZNSt3__112basic_stringIcNS_11char_traitsIcEENS_9allocatorIcEEE18__get_long_pointerB8ue170006Ev, symObjAddr: 0x7248, symBinAddr: 0x10001CE8C, symSize: 0x28 }
  - { offsetInCU: 0xD867, offset: 0x48B35, size: 0x8, addend: 0x0, symName: __ZNSt3__112basic_stringIcNS_11char_traitsIcEENS_9allocatorIcEEE19__get_short_pointerB8ue170006Ev, symObjAddr: 0x7270, symBinAddr: 0x10001CEB4, symSize: 0x28 }
  - { offsetInCU: 0xD88D, offset: 0x48B5B, size: 0x8, addend: 0x0, symName: __ZNSt3__114pointer_traitsIPcE10pointer_toB8ue170006ERc, symObjAddr: 0x7298, symBinAddr: 0x10001CEDC, symSize: 0x14 }
  - { offsetInCU: 0xD8B0, offset: 0x48B7E, size: 0x8, addend: 0x0, symName: __ZNSt3__16vectorINS_12basic_stringIcNS_11char_traitsIcEENS_9allocatorIcEEEENS4_IS6_EEE9__end_capB8ue170006Ev, symObjAddr: 0x72AC, symBinAddr: 0x10001CEF0, symSize: 0x28 }
  - { offsetInCU: 0xD8D6, offset: 0x48BA4, size: 0x8, addend: 0x0, symName: __ZNSt3__16vectorINS_12basic_stringIcNS_11char_traitsIcEENS_9allocatorIcEEEENS4_IS6_EEE22__construct_one_at_endB8ue170006IJRKS6_EEEvDpOT_, symObjAddr: 0x72D4, symBinAddr: 0x10001CF18, symSize: 0x98 }
  - { offsetInCU: 0xD925, offset: 0x48BF3, size: 0x8, addend: 0x0, symName: __ZNSt3__16vectorINS_12basic_stringIcNS_11char_traitsIcEENS_9allocatorIcEEEENS4_IS6_EEE21__push_back_slow_pathIRKS6_EEvOT_, symObjAddr: 0x736C, symBinAddr: 0x10001CFB0, symSize: 0xE0 }
  - { offsetInCU: 0xD983, offset: 0x48C51, size: 0x8, addend: 0x0, symName: __ZNSt3__117__compressed_pairIPNS_12basic_stringIcNS_11char_traitsIcEENS_9allocatorIcEEEENS4_IS6_EEE5firstB8ue170006Ev, symObjAddr: 0x744C, symBinAddr: 0x10001D090, symSize: 0x24 }
  - { offsetInCU: 0xD9A9, offset: 0x48C77, size: 0x8, addend: 0x0, symName: __ZNSt3__122__compressed_pair_elemIPNS_12basic_stringIcNS_11char_traitsIcEENS_9allocatorIcEEEELi0ELb0EE5__getB8ue170006Ev, symObjAddr: 0x7470, symBinAddr: 0x10001D0B4, symSize: 0x14 }
  - { offsetInCU: 0xD9E8, offset: 0x48CB6, size: 0x8, addend: 0x0, symName: __ZNSt3__16vectorINS_12basic_stringIcNS_11char_traitsIcEENS_9allocatorIcEEEENS4_IS6_EEE21_ConstructTransactionC1B8ue170006ERS8_m, symObjAddr: 0x7484, symBinAddr: 0x10001D0C8, symSize: 0x3C }
  - { offsetInCU: 0xDA30, offset: 0x48CFE, size: 0x8, addend: 0x0, symName: __ZNSt3__116allocator_traitsINS_9allocatorINS_12basic_stringIcNS_11char_traitsIcEENS1_IcEEEEEEE9constructB8ue170006IS6_JRKS6_EvEEvRS7_PT_DpOT0_, symObjAddr: 0x74C0, symBinAddr: 0x10001D104, symSize: 0x34 }
  - { offsetInCU: 0xDA87, offset: 0x48D55, size: 0x8, addend: 0x0, symName: __ZNSt3__16vectorINS_12basic_stringIcNS_11char_traitsIcEENS_9allocatorIcEEEENS4_IS6_EEE21_ConstructTransactionD1B8ue170006Ev, symObjAddr: 0x74F4, symBinAddr: 0x10001D138, symSize: 0x2C }
  - { offsetInCU: 0xDAB1, offset: 0x48D7F, size: 0x8, addend: 0x0, symName: __ZNSt3__16vectorINS_12basic_stringIcNS_11char_traitsIcEENS_9allocatorIcEEEENS4_IS6_EEE21_ConstructTransactionC2B8ue170006ERS8_m, symObjAddr: 0x7520, symBinAddr: 0x10001D164, symSize: 0x4C }
  - { offsetInCU: 0xDAF9, offset: 0x48DC7, size: 0x8, addend: 0x0, symName: __ZNSt3__19allocatorINS_12basic_stringIcNS_11char_traitsIcEENS0_IcEEEEE9constructB8ue170006IS5_JRKS5_EEEvPT_DpOT0_, symObjAddr: 0x756C, symBinAddr: 0x10001D1B0, symSize: 0x30 }
  - { offsetInCU: 0xDB4F, offset: 0x48E1D, size: 0x8, addend: 0x0, symName: __ZNSt3__16vectorINS_12basic_stringIcNS_11char_traitsIcEENS_9allocatorIcEEEENS4_IS6_EEE21_ConstructTransactionD2B8ue170006Ev, symObjAddr: 0x759C, symBinAddr: 0x10001D1E0, symSize: 0x20 }
  - { offsetInCU: 0xDB79, offset: 0x48E47, size: 0x8, addend: 0x0, symName: __ZNKSt3__16vectorINS_12basic_stringIcNS_11char_traitsIcEENS_9allocatorIcEEEENS4_IS6_EEE11__recommendB8ue170006Em, symObjAddr: 0x75BC, symBinAddr: 0x10001D200, symSize: 0xB4 }
  - { offsetInCU: 0xDBCE, offset: 0x48E9C, size: 0x8, addend: 0x0, symName: __ZNSt3__114__split_bufferINS_12basic_stringIcNS_11char_traitsIcEENS_9allocatorIcEEEERNS4_IS6_EEEC1EmmS8_, symObjAddr: 0x7670, symBinAddr: 0x10001D2B4, symSize: 0x44 }
  - { offsetInCU: 0xDC24, offset: 0x48EF2, size: 0x8, addend: 0x0, symName: __ZNSt3__114__split_bufferINS_12basic_stringIcNS_11char_traitsIcEENS_9allocatorIcEEEERNS4_IS6_EEED1Ev, symObjAddr: 0x77C4, symBinAddr: 0x10001D408, symSize: 0x2C }
  - { offsetInCU: 0xDC50, offset: 0x48F1E, size: 0x8, addend: 0x0, symName: __ZNKSt3__16vectorINS_12basic_stringIcNS_11char_traitsIcEENS_9allocatorIcEEEENS4_IS6_EEE8max_sizeEv, symObjAddr: 0x77F0, symBinAddr: 0x10001D434, symSize: 0x74 }
  - { offsetInCU: 0xDC78, offset: 0x48F46, size: 0x8, addend: 0x0, symName: __ZNKSt3__16vectorINS_12basic_stringIcNS_11char_traitsIcEENS_9allocatorIcEEEENS4_IS6_EEE20__throw_length_errorB8ue170006Ev, symObjAddr: 0x7864, symBinAddr: 0x10001D4A8, symSize: 0x1C }
  - { offsetInCU: 0xDCA8, offset: 0x48F76, size: 0x8, addend: 0x0, symName: __ZNSt3__116allocator_traitsINS_9allocatorINS_12basic_stringIcNS_11char_traitsIcEENS1_IcEEEEEEE8max_sizeB8ue170006IS7_vEEmRKS7_, symObjAddr: 0x78D8, symBinAddr: 0x10001D4C4, symSize: 0x24 }
  - { offsetInCU: 0xDCD6, offset: 0x48FA4, size: 0x8, addend: 0x0, symName: __ZNKSt3__16vectorINS_12basic_stringIcNS_11char_traitsIcEENS_9allocatorIcEEEENS4_IS6_EEE7__allocB8ue170006Ev, symObjAddr: 0x78FC, symBinAddr: 0x10001D4E8, symSize: 0x28 }
  - { offsetInCU: 0xDCFC, offset: 0x48FCA, size: 0x8, addend: 0x0, symName: __ZNKSt3__19allocatorINS_12basic_stringIcNS_11char_traitsIcEENS0_IcEEEEE8max_sizeB8ue170006Ev, symObjAddr: 0x79C0, symBinAddr: 0x10001D510, symSize: 0x18 }
  - { offsetInCU: 0xDD22, offset: 0x48FF0, size: 0x8, addend: 0x0, symName: __ZNKSt3__117__compressed_pairIPNS_12basic_stringIcNS_11char_traitsIcEENS_9allocatorIcEEEENS4_IS6_EEE6secondB8ue170006Ev, symObjAddr: 0x79D8, symBinAddr: 0x10001D528, symSize: 0x24 }
  - { offsetInCU: 0xDD48, offset: 0x49016, size: 0x8, addend: 0x0, symName: __ZNKSt3__122__compressed_pair_elemINS_9allocatorINS_12basic_stringIcNS_11char_traitsIcEENS1_IcEEEEEELi1ELb1EE5__getB8ue170006Ev, symObjAddr: 0x79FC, symBinAddr: 0x10001D54C, symSize: 0x14 }
  - { offsetInCU: 0xDD6E, offset: 0x4903C, size: 0x8, addend: 0x0, symName: __ZNSt3__114__split_bufferINS_12basic_stringIcNS_11char_traitsIcEENS_9allocatorIcEEEERNS4_IS6_EEEC2EmmS8_, symObjAddr: 0x7B50, symBinAddr: 0x10001D560, symSize: 0xE0 }
  - { offsetInCU: 0xDDE1, offset: 0x490AF, size: 0x8, addend: 0x0, symName: __ZNSt3__117__compressed_pairIPNS_12basic_stringIcNS_11char_traitsIcEENS_9allocatorIcEEEERNS4_IS6_EEEC1B8ue170006IDnS9_EEOT_OT0_, symObjAddr: 0x7C30, symBinAddr: 0x10001D640, symSize: 0x3C }
  - { offsetInCU: 0xDE39, offset: 0x49107, size: 0x8, addend: 0x0, symName: __ZNSt3__114__split_bufferINS_12basic_stringIcNS_11char_traitsIcEENS_9allocatorIcEEEERNS4_IS6_EEE7__allocB8ue170006Ev, symObjAddr: 0x7CAC, symBinAddr: 0x10001D6BC, symSize: 0x28 }
  - { offsetInCU: 0xDE5F, offset: 0x4912D, size: 0x8, addend: 0x0, symName: __ZNSt3__114__split_bufferINS_12basic_stringIcNS_11char_traitsIcEENS_9allocatorIcEEEERNS4_IS6_EEE9__end_capB8ue170006Ev, symObjAddr: 0x7CD4, symBinAddr: 0x10001D6E4, symSize: 0x28 }
  - { offsetInCU: 0xDE85, offset: 0x49153, size: 0x8, addend: 0x0, symName: __ZNSt3__117__compressed_pairIPNS_12basic_stringIcNS_11char_traitsIcEENS_9allocatorIcEEEERNS4_IS6_EEEC2B8ue170006IDnS9_EEOT_OT0_, symObjAddr: 0x7CFC, symBinAddr: 0x10001D70C, symSize: 0x48 }
  - { offsetInCU: 0xDEDD, offset: 0x491AB, size: 0x8, addend: 0x0, symName: __ZNSt3__122__compressed_pair_elemIRNS_9allocatorINS_12basic_stringIcNS_11char_traitsIcEENS1_IcEEEEEELi1ELb0EEC2B8ue170006IS8_vEEOT_, symObjAddr: 0x7D44, symBinAddr: 0x10001D754, symSize: 0x20 }
  - { offsetInCU: 0xDF1F, offset: 0x491ED, size: 0x8, addend: 0x0, symName: __ZNSt3__19allocatorINS_12basic_stringIcNS_11char_traitsIcEENS0_IcEEEEE8allocateB8ue170006Em, symObjAddr: 0x7D64, symBinAddr: 0x10001D774, symSize: 0x8C }
  - { offsetInCU: 0xDF53, offset: 0x49221, size: 0x8, addend: 0x0, symName: __ZNSt3__117__compressed_pairIPNS_12basic_stringIcNS_11char_traitsIcEENS_9allocatorIcEEEERNS4_IS6_EEE6secondB8ue170006Ev, symObjAddr: 0x7DF0, symBinAddr: 0x10001D800, symSize: 0x28 }
  - { offsetInCU: 0xDF79, offset: 0x49247, size: 0x8, addend: 0x0, symName: __ZNSt3__122__compressed_pair_elemIRNS_9allocatorINS_12basic_stringIcNS_11char_traitsIcEENS1_IcEEEEEELi1ELb0EE5__getB8ue170006Ev, symObjAddr: 0x7E18, symBinAddr: 0x10001D828, symSize: 0x18 }
  - { offsetInCU: 0xDF9F, offset: 0x4926D, size: 0x8, addend: 0x0, symName: __ZNSt3__117__compressed_pairIPNS_12basic_stringIcNS_11char_traitsIcEENS_9allocatorIcEEEERNS4_IS6_EEE5firstB8ue170006Ev, symObjAddr: 0x7E30, symBinAddr: 0x10001D840, symSize: 0x24 }
  - { offsetInCU: 0xDFC5, offset: 0x49293, size: 0x8, addend: 0x0, symName: __ZNSt3__116reverse_iteratorIPNS_12basic_stringIcNS_11char_traitsIcEENS_9allocatorIcEEEEEC1B8ue170006ES7_, symObjAddr: 0x7F88, symBinAddr: 0x10001D998, symSize: 0x34 }
  - { offsetInCU: 0xDFFD, offset: 0x492CB, size: 0x8, addend: 0x0, symName: __ZNKSt3__116reverse_iteratorIPNS_12basic_stringIcNS_11char_traitsIcEENS_9allocatorIcEEEEE4baseB8ue170006Ev, symObjAddr: 0x7FBC, symBinAddr: 0x10001D9CC, symSize: 0x18 }
  - { offsetInCU: 0xE023, offset: 0x492F1, size: 0x8, addend: 0x0, symName: __ZNKSt3__16vectorINS_12basic_stringIcNS_11char_traitsIcEENS_9allocatorIcEEEENS4_IS6_EEE14__annotate_newB8ue170006Em, symObjAddr: 0x8010, symBinAddr: 0x10001DA20, symSize: 0xC8 }
  - { offsetInCU: 0xE058, offset: 0x49326, size: 0x8, addend: 0x0, symName: __ZNSt3__129_AllocatorDestroyRangeReverseINS_9allocatorINS_12basic_stringIcNS_11char_traitsIcEENS1_IcEEEEEENS_16reverse_iteratorIPS6_EEEC1B8ue170006ERS7_RSA_SD_, symObjAddr: 0x8124, symBinAddr: 0x10001DB34, symSize: 0x44 }
  - { offsetInCU: 0xE0AF, offset: 0x4937D, size: 0x8, addend: 0x0, symName: __ZNKSt3__116reverse_iteratorIPNS_12basic_stringIcNS_11char_traitsIcEENS_9allocatorIcEEEEEdeB8ue170006Ev, symObjAddr: 0x81D4, symBinAddr: 0x10001DBE4, symSize: 0x28 }
  - { offsetInCU: 0xE0E3, offset: 0x493B1, size: 0x8, addend: 0x0, symName: __ZNSt3__116reverse_iteratorIPNS_12basic_stringIcNS_11char_traitsIcEENS_9allocatorIcEEEEEppB8ue170006Ev, symObjAddr: 0x81FC, symBinAddr: 0x10001DC0C, symSize: 0x20 }
  - { offsetInCU: 0xE109, offset: 0x493D7, size: 0x8, addend: 0x0, symName: __ZNSt3__128__exception_guard_exceptionsINS_29_AllocatorDestroyRangeReverseINS_9allocatorINS_12basic_stringIcNS_11char_traitsIcEENS2_IcEEEEEENS_16reverse_iteratorIPS7_EEEEE10__completeB8ue170006Ev, symObjAddr: 0x821C, symBinAddr: 0x10001DC2C, symSize: 0x1C }
  - { offsetInCU: 0xE12F, offset: 0x493FD, size: 0x8, addend: 0x0, symName: __ZNSt3__128__exception_guard_exceptionsINS_29_AllocatorDestroyRangeReverseINS_9allocatorINS_12basic_stringIcNS_11char_traitsIcEENS2_IcEEEEEENS_16reverse_iteratorIPS7_EEEEED1B8ue170006Ev, symObjAddr: 0x8238, symBinAddr: 0x10001DC48, symSize: 0x2C }
  - { offsetInCU: 0xE159, offset: 0x49427, size: 0x8, addend: 0x0, symName: __ZNSt3__128__exception_guard_exceptionsINS_29_AllocatorDestroyRangeReverseINS_9allocatorINS_12basic_stringIcNS_11char_traitsIcEENS2_IcEEEEEENS_16reverse_iteratorIPS7_EEEEEC1B8ue170006ESC_, symObjAddr: 0x8264, symBinAddr: 0x10001DC74, symSize: 0x34 }
  - { offsetInCU: 0xE192, offset: 0x49460, size: 0x8, addend: 0x0, symName: __ZNSt3__128__exception_guard_exceptionsINS_29_AllocatorDestroyRangeReverseINS_9allocatorINS_12basic_stringIcNS_11char_traitsIcEENS2_IcEEEEEENS_16reverse_iteratorIPS7_EEEEEC2B8ue170006ESC_, symObjAddr: 0x8298, symBinAddr: 0x10001DCA8, symSize: 0x30 }
  - { offsetInCU: 0xE1CB, offset: 0x49499, size: 0x8, addend: 0x0, symName: __ZNSt3__129_AllocatorDestroyRangeReverseINS_9allocatorINS_12basic_stringIcNS_11char_traitsIcEENS1_IcEEEEEENS_16reverse_iteratorIPS6_EEEC2B8ue170006ERS7_RSA_SD_, symObjAddr: 0x82C8, symBinAddr: 0x10001DCD8, symSize: 0x38 }
  - { offsetInCU: 0xE227, offset: 0x494F5, size: 0x8, addend: 0x0, symName: __ZNSt3__119__to_address_helperINS_16reverse_iteratorIPNS_12basic_stringIcNS_11char_traitsIcEENS_9allocatorIcEEEEEEvE6__callB8ue170006ERKS9_, symObjAddr: 0x8300, symBinAddr: 0x10001DD10, symSize: 0x4C }
  - { offsetInCU: 0xE24A, offset: 0x49518, size: 0x8, addend: 0x0, symName: __ZNKSt3__116reverse_iteratorIPNS_12basic_stringIcNS_11char_traitsIcEENS_9allocatorIcEEEEEptB8ue170006Ev, symObjAddr: 0x834C, symBinAddr: 0x10001DD5C, symSize: 0x24 }
  - { offsetInCU: 0xE270, offset: 0x4953E, size: 0x8, addend: 0x0, symName: __ZNSt3__128__exception_guard_exceptionsINS_29_AllocatorDestroyRangeReverseINS_9allocatorINS_12basic_stringIcNS_11char_traitsIcEENS2_IcEEEEEENS_16reverse_iteratorIPS7_EEEEED2B8ue170006Ev, symObjAddr: 0x8370, symBinAddr: 0x10001DD80, symSize: 0x48 }
  - { offsetInCU: 0xE29A, offset: 0x49568, size: 0x8, addend: 0x0, symName: __ZNKSt3__129_AllocatorDestroyRangeReverseINS_9allocatorINS_12basic_stringIcNS_11char_traitsIcEENS1_IcEEEEEENS_16reverse_iteratorIPS6_EEEclB8ue170006Ev, symObjAddr: 0x83B8, symBinAddr: 0x10001DDC8, symSize: 0xB4 }
  - { offsetInCU: 0xE2C1, offset: 0x4958F, size: 0x8, addend: 0x0, symName: __ZNSt3__116reverse_iteratorINS0_IPNS_12basic_stringIcNS_11char_traitsIcEENS_9allocatorIcEEEEEEEC1B8ue170006ES8_, symObjAddr: 0x84DC, symBinAddr: 0x10001DEEC, symSize: 0x3C }
  - { offsetInCU: 0xE2F9, offset: 0x495C7, size: 0x8, addend: 0x0, symName: __ZNSt3__116reverse_iteratorINS0_IPNS_12basic_stringIcNS_11char_traitsIcEENS_9allocatorIcEEEEEEEppB8ue170006Ev, symObjAddr: 0x859C, symBinAddr: 0x10001DFAC, symSize: 0x30 }
  - { offsetInCU: 0xE31F, offset: 0x495ED, size: 0x8, addend: 0x0, symName: __ZNKSt3__116reverse_iteratorINS0_IPNS_12basic_stringIcNS_11char_traitsIcEENS_9allocatorIcEEEEEEE4baseB8ue170006Ev, symObjAddr: 0x85CC, symBinAddr: 0x10001DFDC, symSize: 0x24 }
  - { offsetInCU: 0xE34A, offset: 0x49618, size: 0x8, addend: 0x0, symName: __ZNSt3__119__to_address_helperINS_16reverse_iteratorINS1_IPNS_12basic_stringIcNS_11char_traitsIcEENS_9allocatorIcEEEEEEEEvE6__callB8ue170006ERKSA_, symObjAddr: 0x85F0, symBinAddr: 0x10001E000, symSize: 0x4C }
  - { offsetInCU: 0xE36D, offset: 0x4963B, size: 0x8, addend: 0x0, symName: __ZNKSt3__116reverse_iteratorINS0_IPNS_12basic_stringIcNS_11char_traitsIcEENS_9allocatorIcEEEEEEEptB8ue170006Ev, symObjAddr: 0x863C, symBinAddr: 0x10001E04C, symSize: 0x24 }
  - { offsetInCU: 0xE393, offset: 0x49661, size: 0x8, addend: 0x0, symName: __ZNKSt3__116reverse_iteratorINS0_IPNS_12basic_stringIcNS_11char_traitsIcEENS_9allocatorIcEEEEEEEdeB8ue170006Ev, symObjAddr: 0x8660, symBinAddr: 0x10001E070, symSize: 0x34 }
  - { offsetInCU: 0xE3C7, offset: 0x49695, size: 0x8, addend: 0x0, symName: __ZNSt3__116reverse_iteratorIPNS_12basic_stringIcNS_11char_traitsIcEENS_9allocatorIcEEEEEmmB8ue170006Ev, symObjAddr: 0x8694, symBinAddr: 0x10001E0A4, symSize: 0x20 }
  - { offsetInCU: 0xE3ED, offset: 0x496BB, size: 0x8, addend: 0x0, symName: __ZNSt3__116reverse_iteratorINS0_IPNS_12basic_stringIcNS_11char_traitsIcEENS_9allocatorIcEEEEEEEC2B8ue170006ES8_, symObjAddr: 0x86B4, symBinAddr: 0x10001E0C4, symSize: 0x2C }
  - { offsetInCU: 0xE425, offset: 0x496F3, size: 0x8, addend: 0x0, symName: __ZNSt3__116reverse_iteratorIPNS_12basic_stringIcNS_11char_traitsIcEENS_9allocatorIcEEEEEC2B8ue170006ES7_, symObjAddr: 0x86E0, symBinAddr: 0x10001E0F0, symSize: 0x28 }
  - { offsetInCU: 0xE45D, offset: 0x4972B, size: 0x8, addend: 0x0, symName: __ZNSt3__114__split_bufferINS_12basic_stringIcNS_11char_traitsIcEENS_9allocatorIcEEEERNS4_IS6_EEED2Ev, symObjAddr: 0x8708, symBinAddr: 0x10001E118, symSize: 0x80 }
  - { offsetInCU: 0xE489, offset: 0x49757, size: 0x8, addend: 0x0, symName: __ZNSt3__114__split_bufferINS_12basic_stringIcNS_11char_traitsIcEENS_9allocatorIcEEEERNS4_IS6_EEE5clearB8ue170006Ev, symObjAddr: 0x8788, symBinAddr: 0x10001E198, symSize: 0x28 }
  - { offsetInCU: 0xE4AF, offset: 0x4977D, size: 0x8, addend: 0x0, symName: __ZNKSt3__114__split_bufferINS_12basic_stringIcNS_11char_traitsIcEENS_9allocatorIcEEEERNS4_IS6_EEE8capacityB8ue170006Ev, symObjAddr: 0x87B0, symBinAddr: 0x10001E1C0, symSize: 0x40 }
  - { offsetInCU: 0xE4D5, offset: 0x497A3, size: 0x8, addend: 0x0, symName: __ZNSt3__114__split_bufferINS_12basic_stringIcNS_11char_traitsIcEENS_9allocatorIcEEEERNS4_IS6_EEE17__destruct_at_endB8ue170006EPS6_, symObjAddr: 0x87F0, symBinAddr: 0x10001E200, symSize: 0x2C }
  - { offsetInCU: 0xE509, offset: 0x497D7, size: 0x8, addend: 0x0, symName: __ZNSt3__114__split_bufferINS_12basic_stringIcNS_11char_traitsIcEENS_9allocatorIcEEEERNS4_IS6_EEE17__destruct_at_endB8ue170006EPS6_NS_17integral_constantIbLb0EEE, symObjAddr: 0x881C, symBinAddr: 0x10001E22C, symSize: 0x94 }
  - { offsetInCU: 0xE549, offset: 0x49817, size: 0x8, addend: 0x0, symName: __ZNKSt3__114__split_bufferINS_12basic_stringIcNS_11char_traitsIcEENS_9allocatorIcEEEERNS4_IS6_EEE9__end_capB8ue170006Ev, symObjAddr: 0x88B0, symBinAddr: 0x10001E2C0, symSize: 0x28 }
  - { offsetInCU: 0xE56F, offset: 0x4983D, size: 0x8, addend: 0x0, symName: __ZNKSt3__117__compressed_pairIPNS_12basic_stringIcNS_11char_traitsIcEENS_9allocatorIcEEEERNS4_IS6_EEE5firstB8ue170006Ev, symObjAddr: 0x88D8, symBinAddr: 0x10001E2E8, symSize: 0x24 }
  - { offsetInCU: 0xE595, offset: 0x49863, size: 0x8, addend: 0x0, symName: __ZNSt3__111char_traitsIcE6assignB8ue170006ERcRKc, symObjAddr: 0x88FC, symBinAddr: 0x10001E30C, symSize: 0x24 }
  - { offsetInCU: 0xE5C6, offset: 0x49894, size: 0x8, addend: 0x0, symName: __ZNSt3__112basic_stringIcNS_11char_traitsIcEENS_9allocatorIcEEE16__set_short_sizeB8ue170006Em, symObjAddr: 0x8920, symBinAddr: 0x10001E330, symSize: 0x78 }
  - { offsetInCU: 0xE5FB, offset: 0x498C9, size: 0x8, addend: 0x0, symName: __ZNSt3__16vectorINS_12basic_stringIcNS_11char_traitsIcEENS_9allocatorIcEEEENS4_IS6_EEE11__make_iterB8ue170006EPS6_, symObjAddr: 0x8998, symBinAddr: 0x10001E3A8, symSize: 0x30 }
  - { offsetInCU: 0xE630, offset: 0x498FE, size: 0x8, addend: 0x0, symName: __ZNSt3__111__wrap_iterIPNS_12basic_stringIcNS_11char_traitsIcEENS_9allocatorIcEEEEEC1B8ue170006ES7_, symObjAddr: 0x89C8, symBinAddr: 0x10001E3D8, symSize: 0x34 }
  - { offsetInCU: 0xE668, offset: 0x49936, size: 0x8, addend: 0x0, symName: __ZNSt3__111__wrap_iterIPNS_12basic_stringIcNS_11char_traitsIcEENS_9allocatorIcEEEEEC2B8ue170006ES7_, symObjAddr: 0x89FC, symBinAddr: 0x10001E40C, symSize: 0x20 }
  - { offsetInCU: 0xE6A0, offset: 0x4996E, size: 0x8, addend: 0x0, symName: __ZNKSt3__16vectorINS_12basic_stringIcNS_11char_traitsIcEENS_9allocatorIcEEEENS4_IS6_EEE6cbeginB8ue170006Ev, symObjAddr: 0x8A64, symBinAddr: 0x10001E474, symSize: 0x2C }
  - { offsetInCU: 0xE6C6, offset: 0x49994, size: 0x8, addend: 0x0, symName: __ZNSt3__16vectorINS_12basic_stringIcNS_11char_traitsIcEENS_9allocatorIcEEEENS4_IS6_EEE17__destruct_at_endB8ue170006EPS6_, symObjAddr: 0x8A90, symBinAddr: 0x10001E4A0, symSize: 0x4C }
  - { offsetInCU: 0xE70A, offset: 0x499D8, size: 0x8, addend: 0x0, symName: __ZNKSt3__111__wrap_iterIPKNS_12basic_stringIcNS_11char_traitsIcEENS_9allocatorIcEEEEE4baseB8ue170006Ev, symObjAddr: 0x8B1C, symBinAddr: 0x10001E52C, symSize: 0x18 }
  - { offsetInCU: 0xE730, offset: 0x499FE, size: 0x8, addend: 0x0, symName: __ZNKSt3__16vectorINS_12basic_stringIcNS_11char_traitsIcEENS_9allocatorIcEEEENS4_IS6_EEE5beginB8ue170006Ev, symObjAddr: 0x8B34, symBinAddr: 0x10001E544, symSize: 0x30 }
  - { offsetInCU: 0xE758, offset: 0x49A26, size: 0x8, addend: 0x0, symName: __ZNKSt3__16vectorINS_12basic_stringIcNS_11char_traitsIcEENS_9allocatorIcEEEENS4_IS6_EEE11__make_iterB8ue170006EPKS6_, symObjAddr: 0x8B64, symBinAddr: 0x10001E574, symSize: 0x30 }
  - { offsetInCU: 0xE78D, offset: 0x49A5B, size: 0x8, addend: 0x0, symName: __ZNSt3__111__wrap_iterIPKNS_12basic_stringIcNS_11char_traitsIcEENS_9allocatorIcEEEEEC1B8ue170006ES8_, symObjAddr: 0x8B94, symBinAddr: 0x10001E5A4, symSize: 0x34 }
  - { offsetInCU: 0xE7C5, offset: 0x49A93, size: 0x8, addend: 0x0, symName: __ZNSt3__111__wrap_iterIPKNS_12basic_stringIcNS_11char_traitsIcEENS_9allocatorIcEEEEEC2B8ue170006ES8_, symObjAddr: 0x8BC8, symBinAddr: 0x10001E5D8, symSize: 0x20 }
  - { offsetInCU: 0xE7FD, offset: 0x49ACB, size: 0x8, addend: 0x0, symName: __ZNKSt3__16vectorINS_12basic_stringIcNS_11char_traitsIcEENS_9allocatorIcEEEENS4_IS6_EEE17__annotate_shrinkB8ue170006Em, symObjAddr: 0x8BE8, symBinAddr: 0x10001E5F8, symSize: 0xD0 }
  - { offsetInCU: 0xE856, offset: 0x49B24, size: 0x8, addend: 0x0, symName: __ZNKSt3__111__move_loopINS_17_ClassicAlgPolicyEEclB8ue170006IPNS_12basic_stringIcNS_11char_traitsIcEENS_9allocatorIcEEEESA_SA_EENS_4pairIT_T1_EESC_T0_SD_, symObjAddr: 0x8E54, symBinAddr: 0x10001E864, symSize: 0x90 }
  - { offsetInCU: 0xE8C7, offset: 0x49B95, size: 0x8, addend: 0x0, symName: __ZNSt3__18_IterOpsINS_17_ClassicAlgPolicyEE11__iter_moveB8ue170006IRPNS_12basic_stringIcNS_11char_traitsIcEENS_9allocatorIcEEEEEENS_9enable_ifIXsr12is_referenceIDTdeclsr3stdE7declvalIRT_EEEEE5valueEDTclsr3stdE4movedeclsr3stdE7declvalISE_EEEEE4typeEOSD_, symObjAddr: 0x8FBC, symBinAddr: 0x10001E9CC, symSize: 0x28 }
  - { offsetInCU: 0xE8F3, offset: 0x49BC1, size: 0x8, addend: 0x0, symName: __ZNSt3__18_IterOpsINS_17_ClassicAlgPolicyEE25__validate_iter_referenceB8ue170006IRPNS_12basic_stringIcNS_11char_traitsIcEENS_9allocatorIcEEEEEEvv, symObjAddr: 0x8FE4, symBinAddr: 0x10001E9F4, symSize: 0x4 }
  - { offsetInCU: 0xE911, offset: 0x49BDF, size: 0x8, addend: 0x0, symName: __ZNSt3__118__unwrap_iter_implIPNS_12basic_stringIcNS_11char_traitsIcEENS_9allocatorIcEEEELb1EE8__unwrapB8ue170006ES7_, symObjAddr: 0x8FE8, symBinAddr: 0x10001E9F8, symSize: 0x24 }
  - { offsetInCU: 0xE934, offset: 0x49C02, size: 0x8, addend: 0x0, symName: __ZNSt3__14pairIPNS_12basic_stringIcNS_11char_traitsIcEENS_9allocatorIcEEEES7_EC1B8ue170006ERKS7_SA_, symObjAddr: 0x900C, symBinAddr: 0x10001EA1C, symSize: 0x3C }
  - { offsetInCU: 0xE97A, offset: 0x49C48, size: 0x8, addend: 0x0, symName: __ZNSt3__14pairIPNS_12basic_stringIcNS_11char_traitsIcEENS_9allocatorIcEEEES7_EC2B8ue170006ERKS7_SA_, symObjAddr: 0x9048, symBinAddr: 0x10001EA58, symSize: 0x34 }
  - { offsetInCU: 0xE9C0, offset: 0x49C8E, size: 0x8, addend: 0x0, symName: __ZNSt3__118__unwrap_iter_implIPNS_12basic_stringIcNS_11char_traitsIcEENS_9allocatorIcEEEELb1EE8__rewrapB8ue170006ES7_S7_, symObjAddr: 0x907C, symBinAddr: 0x10001EA8C, symSize: 0x58 }
  - { offsetInCU: 0xE9F1, offset: 0x49CBF, size: 0x8, addend: 0x0, symName: __ZNSt3__111__wrap_iterIPKNS_12basic_stringIcNS_11char_traitsIcEENS_9allocatorIcEEEEEC2B8ue170006IPS6_EERKNS0_IT_EEPNS_9enable_ifIXsr14is_convertibleISC_S8_EE5valueEvE4typeE, symObjAddr: 0x90D4, symBinAddr: 0x10001EAE4, symSize: 0x40 }
  - { offsetInCU: 0xEA3C, offset: 0x49D0A, size: 0x8, addend: 0x0, symName: __ZNKSt3__111__wrap_iterIPNS_12basic_stringIcNS_11char_traitsIcEENS_9allocatorIcEEEEE4baseB8ue170006Ev, symObjAddr: 0x9114, symBinAddr: 0x10001EB24, symSize: 0x18 }
  - { offsetInCU: 0xEA62, offset: 0x49D30, size: 0x8, addend: 0x0, symName: __ZNSt3__16vectorINS_12basic_stringIcNS_11char_traitsIcEENS_9allocatorIcEEEENS4_IS6_EEEC2ERKS8_, symObjAddr: 0x912C, symBinAddr: 0x10001EB3C, symSize: 0x94 }
  - { offsetInCU: 0xEA9D, offset: 0x49D6B, size: 0x8, addend: 0x0, symName: __ZNSt3__116allocator_traitsINS_9allocatorINS_12basic_stringIcNS_11char_traitsIcEENS1_IcEEEEEEE37select_on_container_copy_constructionB8ue170006IS7_vvEES7_RKS7_, symObjAddr: 0x91C0, symBinAddr: 0x10001EBD0, symSize: 0x10 }
  - { offsetInCU: 0xEAD2, offset: 0x49DA0, size: 0x8, addend: 0x0, symName: __ZNSt3__117__compressed_pairIPNS_12basic_stringIcNS_11char_traitsIcEENS_9allocatorIcEEEENS4_IS6_EEEC1B8ue170006IDnS8_EEOT_OT0_, symObjAddr: 0x91D0, symBinAddr: 0x10001EBE0, symSize: 0x3C }
  - { offsetInCU: 0xEB2A, offset: 0x49DF8, size: 0x8, addend: 0x0, symName: __ZNSt3__16vectorINS_12basic_stringIcNS_11char_traitsIcEENS_9allocatorIcEEEENS4_IS6_EEE16__init_with_sizeB8ue170006IPS6_SA_EEvT_T0_m, symObjAddr: 0x920C, symBinAddr: 0x10001EC1C, symSize: 0xC0 }
  - { offsetInCU: 0xEB9E, offset: 0x49E6C, size: 0x8, addend: 0x0, symName: __ZNSt3__117__compressed_pairIPNS_12basic_stringIcNS_11char_traitsIcEENS_9allocatorIcEEEENS4_IS6_EEEC2B8ue170006IDnS8_EEOT_OT0_, symObjAddr: 0x92CC, symBinAddr: 0x10001ECDC, symSize: 0x44 }
  - { offsetInCU: 0xEBF6, offset: 0x49EC4, size: 0x8, addend: 0x0, symName: __ZNSt3__122__compressed_pair_elemINS_9allocatorINS_12basic_stringIcNS_11char_traitsIcEENS1_IcEEEEEELi1ELb1EEC2B8ue170006IS7_vEEOT_, symObjAddr: 0x9310, symBinAddr: 0x10001ED20, symSize: 0x18 }
  - { offsetInCU: 0xEC38, offset: 0x49F06, size: 0x8, addend: 0x0, symName: __ZNSt3__16vectorINS_12basic_stringIcNS_11char_traitsIcEENS_9allocatorIcEEEENS4_IS6_EEE11__vallocateB8ue170006Em, symObjAddr: 0x9368, symBinAddr: 0x10001ED78, symSize: 0xB4 }
  - { offsetInCU: 0xEC7C, offset: 0x49F4A, size: 0x8, addend: 0x0, symName: __ZNSt3__16vectorINS_12basic_stringIcNS_11char_traitsIcEENS_9allocatorIcEEEENS4_IS6_EEE18__construct_at_endIPS6_SA_EEvT_T0_m, symObjAddr: 0x941C, symBinAddr: 0x10001EE2C, symSize: 0x94 }
  - { offsetInCU: 0xECF2, offset: 0x49FC0, size: 0x8, addend: 0x0, symName: __ZNSt3__128__exception_guard_exceptionsINS_6vectorINS_12basic_stringIcNS_11char_traitsIcEENS_9allocatorIcEEEENS5_IS7_EEE16__destroy_vectorEE10__completeB8ue170006Ev, symObjAddr: 0x94B0, symBinAddr: 0x10001EEC0, symSize: 0x1C }
  - { offsetInCU: 0xED18, offset: 0x49FE6, size: 0x8, addend: 0x0, symName: __ZNSt3__128__exception_guard_exceptionsINS_6vectorINS_12basic_stringIcNS_11char_traitsIcEENS_9allocatorIcEEEENS5_IS7_EEE16__destroy_vectorEED1B8ue170006Ev, symObjAddr: 0x94CC, symBinAddr: 0x10001EEDC, symSize: 0x2C }
  - { offsetInCU: 0xED42, offset: 0x4A010, size: 0x8, addend: 0x0, symName: __ZNSt3__128__exception_guard_exceptionsINS_6vectorINS_12basic_stringIcNS_11char_traitsIcEENS_9allocatorIcEEEENS5_IS7_EEE16__destroy_vectorEEC1B8ue170006ESA_, symObjAddr: 0x94F8, symBinAddr: 0x10001EF08, symSize: 0x34 }
  - { offsetInCU: 0xED7A, offset: 0x4A048, size: 0x8, addend: 0x0, symName: __ZNSt3__128__exception_guard_exceptionsINS_6vectorINS_12basic_stringIcNS_11char_traitsIcEENS_9allocatorIcEEEENS5_IS7_EEE16__destroy_vectorEEC2B8ue170006ESA_, symObjAddr: 0x952C, symBinAddr: 0x10001EF3C, symSize: 0x24 }
  - { offsetInCU: 0xEDB2, offset: 0x4A080, size: 0x8, addend: 0x0, symName: __ZNSt3__129_AllocatorDestroyRangeReverseINS_9allocatorINS_12basic_stringIcNS_11char_traitsIcEENS1_IcEEEEEEPS6_EC1B8ue170006ERS7_RS8_SB_, symObjAddr: 0x9718, symBinAddr: 0x10001F128, symSize: 0x44 }
  - { offsetInCU: 0xEE09, offset: 0x4A0D7, size: 0x8, addend: 0x0, symName: __ZNSt3__116allocator_traitsINS_9allocatorINS_12basic_stringIcNS_11char_traitsIcEENS1_IcEEEEEEE9constructB8ue170006IS6_JRS6_EvEEvRS7_PT_DpOT0_, symObjAddr: 0x975C, symBinAddr: 0x10001F16C, symSize: 0x34 }
  - { offsetInCU: 0xEE60, offset: 0x4A12E, size: 0x8, addend: 0x0, symName: __ZNSt3__128__exception_guard_exceptionsINS_29_AllocatorDestroyRangeReverseINS_9allocatorINS_12basic_stringIcNS_11char_traitsIcEENS2_IcEEEEEEPS7_EEE10__completeB8ue170006Ev, symObjAddr: 0x9790, symBinAddr: 0x10001F1A0, symSize: 0x1C }
  - { offsetInCU: 0xEE86, offset: 0x4A154, size: 0x8, addend: 0x0, symName: __ZNSt3__128__exception_guard_exceptionsINS_29_AllocatorDestroyRangeReverseINS_9allocatorINS_12basic_stringIcNS_11char_traitsIcEENS2_IcEEEEEEPS7_EEED1B8ue170006Ev, symObjAddr: 0x97AC, symBinAddr: 0x10001F1BC, symSize: 0x2C }
  - { offsetInCU: 0xEEB0, offset: 0x4A17E, size: 0x8, addend: 0x0, symName: __ZNSt3__128__exception_guard_exceptionsINS_29_AllocatorDestroyRangeReverseINS_9allocatorINS_12basic_stringIcNS_11char_traitsIcEENS2_IcEEEEEEPS7_EEEC1B8ue170006ESA_, symObjAddr: 0x97D8, symBinAddr: 0x10001F1E8, symSize: 0x34 }
  - { offsetInCU: 0xEEE9, offset: 0x4A1B7, size: 0x8, addend: 0x0, symName: __ZNSt3__128__exception_guard_exceptionsINS_29_AllocatorDestroyRangeReverseINS_9allocatorINS_12basic_stringIcNS_11char_traitsIcEENS2_IcEEEEEEPS7_EEEC2B8ue170006ESA_, symObjAddr: 0x980C, symBinAddr: 0x10001F21C, symSize: 0x30 }
  - { offsetInCU: 0xEF22, offset: 0x4A1F0, size: 0x8, addend: 0x0, symName: __ZNSt3__129_AllocatorDestroyRangeReverseINS_9allocatorINS_12basic_stringIcNS_11char_traitsIcEENS1_IcEEEEEEPS6_EC2B8ue170006ERS7_RS8_SB_, symObjAddr: 0x983C, symBinAddr: 0x10001F24C, symSize: 0x38 }
  - { offsetInCU: 0xEF79, offset: 0x4A247, size: 0x8, addend: 0x0, symName: __ZNSt3__19allocatorINS_12basic_stringIcNS_11char_traitsIcEENS0_IcEEEEE9constructB8ue170006IS5_JRS5_EEEvPT_DpOT0_, symObjAddr: 0x9874, symBinAddr: 0x10001F284, symSize: 0x30 }
  - { offsetInCU: 0xEFCF, offset: 0x4A29D, size: 0x8, addend: 0x0, symName: __ZNSt3__128__exception_guard_exceptionsINS_29_AllocatorDestroyRangeReverseINS_9allocatorINS_12basic_stringIcNS_11char_traitsIcEENS2_IcEEEEEEPS7_EEED2B8ue170006Ev, symObjAddr: 0x98A4, symBinAddr: 0x10001F2B4, symSize: 0x48 }
  - { offsetInCU: 0xEFF9, offset: 0x4A2C7, size: 0x8, addend: 0x0, symName: __ZNKSt3__129_AllocatorDestroyRangeReverseINS_9allocatorINS_12basic_stringIcNS_11char_traitsIcEENS1_IcEEEEEEPS6_EclB8ue170006Ev, symObjAddr: 0x98EC, symBinAddr: 0x10001F2FC, symSize: 0x68 }
  - { offsetInCU: 0xF01F, offset: 0x4A2ED, size: 0x8, addend: 0x0, symName: __ZNSt3__128__exception_guard_exceptionsINS_6vectorINS_12basic_stringIcNS_11char_traitsIcEENS_9allocatorIcEEEENS5_IS7_EEE16__destroy_vectorEED2B8ue170006Ev, symObjAddr: 0x99C4, symBinAddr: 0x10001F3D4, symSize: 0x48 }
  - { offsetInCU: 0xF049, offset: 0x4A317, size: 0x8, addend: 0x0, symName: __ZNSt3__115basic_streambufIcNS_11char_traitsIcEEE5sgetcB8ue170006Ev, symObjAddr: 0x9A0C, symBinAddr: 0x10001F41C, symSize: 0x70 }
  - { offsetInCU: 0xF06F, offset: 0x4A33D, size: 0x8, addend: 0x0, symName: __ZNKSt3__15ctypeIcE2isB8ue170006Ejc, symObjAddr: 0x9A7C, symBinAddr: 0x10001F48C, symSize: 0x7C }
  - { offsetInCU: 0xF0B2, offset: 0x4A380, size: 0x8, addend: 0x0, symName: __Z7isasciii, symObjAddr: 0x9AF8, symBinAddr: 0x10001F508, symSize: 0x24 }
  - { offsetInCU: 0x494E, offset: 0x4EDE6, size: 0x8, addend: 0x0, symName: __ZNSt3__1neB8ue170006IPNS_12basic_stringIcNS_11char_traitsIcEENS_9allocatorIcEEEEEEbRKNS_11__wrap_iterIT_EESC_, symObjAddr: 0x30C, symBinAddr: 0x10001F808, symSize: 0x34 }
  - { offsetInCU: 0x4991, offset: 0x4EE29, size: 0x8, addend: 0x0, symName: __ZNSt3__1lsB8ue170006IcNS_11char_traitsIcEEEERNS_13basic_ostreamIT_T0_EES7_RKNS_8__iom_t5E, symObjAddr: 0x558, symBinAddr: 0x10001FA00, symSize: 0x40 }
  - { offsetInCU: 0x49DD, offset: 0x4EE75, size: 0x8, addend: 0x0, symName: __ZNSt3__1lsB8ue170006IcNS_11char_traitsIcEEEERNS_13basic_ostreamIT_T0_EES7_RKNS_8__iom_t6E, symObjAddr: 0x598, symBinAddr: 0x10001FA40, symSize: 0x40 }
  - { offsetInCU: 0x4A2C, offset: 0x4EEC4, size: 0x8, addend: 0x0, symName: __ZNSt3__14setwB8ue170006Ei, symObjAddr: 0x5D8, symBinAddr: 0x10001FA80, symSize: 0x2C }
  - { offsetInCU: 0x4A5A, offset: 0x4EEF2, size: 0x8, addend: 0x0, symName: __ZNSt3__112setprecisionB8ue170006Ei, symObjAddr: 0x604, symBinAddr: 0x10001FAAC, symSize: 0x2C }
  - { offsetInCU: 0x4A86, offset: 0x4EF1E, size: 0x8, addend: 0x0, symName: __ZNSt3__1eqB8ue170006IPNS_12basic_stringIcNS_11char_traitsIcEENS_9allocatorIcEEEEEEbRKNS_11__wrap_iterIT_EESC_, symObjAddr: 0x7E0, symBinAddr: 0x10001FB80, symSize: 0x48 }
  - { offsetInCU: 0x6C63, offset: 0x510FB, size: 0x8, addend: 0x0, symName: __ZN15MatrizDistanciaC2EiNSt3__16vectorINS0_12basic_stringIcNS0_11char_traitsIcEENS0_9allocatorIcEEEENS5_IS7_EEEE, symObjAddr: 0x0, symBinAddr: 0x10001F52C, symSize: 0x2DC }
  - { offsetInCU: 0x6D44, offset: 0x511DC, size: 0x8, addend: 0x0, symName: __ZNSt3__16vectorINS_12basic_stringIcNS_11char_traitsIcEENS_9allocatorIcEEEENS4_IS6_EEE3endB8ue170006Ev, symObjAddr: 0x340, symBinAddr: 0x10001F83C, symSize: 0x30 }
  - { offsetInCU: 0x6D6C, offset: 0x51204, size: 0x8, addend: 0x0, symName: __ZNKSt3__111__wrap_iterIPNS_12basic_stringIcNS_11char_traitsIcEENS_9allocatorIcEEEEEdeB8ue170006Ev, symObjAddr: 0x370, symBinAddr: 0x10001F86C, symSize: 0x18 }
  - { offsetInCU: 0x6D92, offset: 0x5122A, size: 0x8, addend: 0x0, symName: __ZNSt3__111__wrap_iterIPNS_12basic_stringIcNS_11char_traitsIcEENS_9allocatorIcEEEEEppB8ue170006Ei, symObjAddr: 0x388, symBinAddr: 0x10001F884, symSize: 0x34 }
  - { offsetInCU: 0x6DD0, offset: 0x51268, size: 0x8, addend: 0x0, symName: __ZN15MatrizDistanciaC1EiNSt3__16vectorINS0_12basic_stringIcNS0_11char_traitsIcEENS0_9allocatorIcEEEENS5_IS7_EEEE, symObjAddr: 0x3C8, symBinAddr: 0x10001F8B8, symSize: 0x3C }
  - { offsetInCU: 0x6E19, offset: 0x512B1, size: 0x8, addend: 0x0, symName: __ZN15MatrizDistancia11printMatrizEv, symObjAddr: 0x404, symBinAddr: 0x10001F8F4, symSize: 0x10C }
  - { offsetInCU: 0x6E79, offset: 0x51311, size: 0x8, addend: 0x0, symName: __ZNSt3__18__iom_t6C1B8ue170006Ei, symObjAddr: 0x6B4, symBinAddr: 0x10001FAD8, symSize: 0x34 }
  - { offsetInCU: 0x6EB1, offset: 0x51349, size: 0x8, addend: 0x0, symName: __ZNSt3__18__iom_t6C2B8ue170006Ei, symObjAddr: 0x6E8, symBinAddr: 0x10001FB0C, symSize: 0x20 }
  - { offsetInCU: 0x6EE9, offset: 0x51381, size: 0x8, addend: 0x0, symName: __ZNSt3__18__iom_t5C1B8ue170006Ei, symObjAddr: 0x708, symBinAddr: 0x10001FB2C, symSize: 0x34 }
  - { offsetInCU: 0x6F21, offset: 0x513B9, size: 0x8, addend: 0x0, symName: __ZNSt3__18__iom_t5C2B8ue170006Ei, symObjAddr: 0x73C, symBinAddr: 0x10001FB60, symSize: 0x20 }
  - { offsetInCU: 0x6F59, offset: 0x513F1, size: 0x8, addend: 0x0, symName: __ZNSt3__111__wrap_iterIPNS_12basic_stringIcNS_11char_traitsIcEENS_9allocatorIcEEEEEppB8ue170006Ev, symObjAddr: 0x840, symBinAddr: 0x10001FBC8, symSize: 0x20 }
  - { offsetInCU: 0x6F7F, offset: 0x51417, size: 0x8, addend: 0x0, symName: __ZNSt3__18ios_base9precisionB8ue170006El, symObjAddr: 0x88C, symBinAddr: 0x10001FBE8, symSize: 0x2C }
  - { offsetInCU: 0x1A16, offset: 0x52ECD, size: 0x8, addend: 0x0, symName: __ZNSt3__19make_pairB8ue170006IRiRfEENS_4pairINS_18__unwrap_ref_decayIT_E4typeENS4_IT0_E4typeEEEOS5_OS8_, symObjAddr: 0x2AC, symBinAddr: 0x10001FE68, symSize: 0x34 }
  - { offsetInCU: 0x3C28, offset: 0x550DF, size: 0x8, addend: 0x0, symName: __ZN4NodoC2Ei15MatrizDistancia, symObjAddr: 0x0, symBinAddr: 0x10001FC14, symSize: 0x1D8 }
  - { offsetInCU: 0x3C85, offset: 0x5513C, size: 0x8, addend: 0x0, symName: __ZN15MatrizDistancia4getNEv, symObjAddr: 0x230, symBinAddr: 0x10001FDEC, symSize: 0x18 }
  - { offsetInCU: 0x3CAB, offset: 0x55162, size: 0x8, addend: 0x0, symName: __ZN15MatrizDistancia9getMatrizEv, symObjAddr: 0x248, symBinAddr: 0x10001FE04, symSize: 0x18 }
  - { offsetInCU: 0x3CD1, offset: 0x55188, size: 0x8, addend: 0x0, symName: __ZNSt3__13mapIifNS_4lessIiEENS_9allocatorINS_4pairIKifEEEEE6insertB8ue170006ERKS6_, symObjAddr: 0x260, symBinAddr: 0x10001FE1C, symSize: 0x4C }
  - { offsetInCU: 0x3D1F, offset: 0x551D6, size: 0x8, addend: 0x0, symName: __ZNSt3__14pairIKifEC1B8ue170006IifEERKNS0_IT_T0_EE, symObjAddr: 0x2E0, symBinAddr: 0x10001FE9C, symSize: 0x34 }
  - { offsetInCU: 0x3D69, offset: 0x55220, size: 0x8, addend: 0x0, symName: __ZN4NodoC1Ei15MatrizDistancia, symObjAddr: 0x34C, symBinAddr: 0x10001FED0, symSize: 0x44 }
  - { offsetInCU: 0x3DB2, offset: 0x55269, size: 0x8, addend: 0x0, symName: __ZNK4Nodo12printVecinosEv, symObjAddr: 0x390, symBinAddr: 0x10001FF14, symSize: 0xB8 }
  - { offsetInCU: 0x3E2B, offset: 0x552E2, size: 0x8, addend: 0x0, symName: __ZNK4Nodo9printNodoEv, symObjAddr: 0x608, symBinAddr: 0x10001FFCC, symSize: 0x50 }
  - { offsetInCU: 0x3E53, offset: 0x5530A, size: 0x8, addend: 0x0, symName: __ZN4NodoaSERKS_, symObjAddr: 0x658, symBinAddr: 0x10002001C, symSize: 0x5C }
  - { offsetInCU: 0x3E89, offset: 0x55340, size: 0x8, addend: 0x0, symName: __ZNSt3__13mapIifNS_4lessIiEENS_9allocatorINS_4pairIKifEEEEEaSB8ue170006ERKS8_, symObjAddr: 0x6B4, symBinAddr: 0x100020078, symSize: 0x94 }
  - { offsetInCU: 0x3EBD, offset: 0x55374, size: 0x8, addend: 0x0, symName: __ZNSt3__14pairIifEC1B8ue170006ERKiRKf, symObjAddr: 0xEBC, symBinAddr: 0x10002010C, symSize: 0x3C }
  - { offsetInCU: 0x3F04, offset: 0x553BB, size: 0x8, addend: 0x0, symName: __ZNSt3__14pairIifEC2B8ue170006ERKiRKf, symObjAddr: 0xEF8, symBinAddr: 0x100020148, symSize: 0x34 }
  - { offsetInCU: 0x3F4A, offset: 0x55401, size: 0x8, addend: 0x0, symName: __ZNSt3__16__treeINS_12__value_typeIifEENS_19__map_value_compareIiS2_NS_4lessIiEELb1EEENS_9allocatorIS2_EEE15__insert_uniqueB8ue170006ERKNS_4pairIKifEE, symObjAddr: 0xF2C, symBinAddr: 0x10002017C, symSize: 0x50 }
  - { offsetInCU: 0x3F7E, offset: 0x55435, size: 0x8, addend: 0x0, symName: __ZNSt3__14pairINS_14__map_iteratorINS_15__tree_iteratorINS_12__value_typeIifEEPNS_11__tree_nodeIS4_PvEElEEEEbEC1B8ue170006IS9_bEERKNS0_IT_T0_EE, symObjAddr: 0xF7C, symBinAddr: 0x1000201CC, symSize: 0x34 }
  - { offsetInCU: 0x3FC9, offset: 0x55480, size: 0x8, addend: 0x0, symName: __ZNSt3__16__treeINS_12__value_typeIifEENS_19__map_value_compareIiS2_NS_4lessIiEELb1EEENS_9allocatorIS2_EEE25__emplace_unique_key_argsIiJRKNS_4pairIKifEEEEENSB_INS_15__tree_iteratorIS2_PNS_11__tree_nodeIS2_PvEElEEbEERKT_DpOT0_, symObjAddr: 0xFB0, symBinAddr: 0x100020200, symSize: 0xF0 }
  - { offsetInCU: 0x4074, offset: 0x5552B, size: 0x8, addend: 0x0, symName: __ZNSt3__14pairINS_14__map_iteratorINS_15__tree_iteratorINS_12__value_typeIifEEPNS_11__tree_nodeIS4_PvEElEEEEbEC2B8ue170006IS9_bEERKNS0_IT_T0_EE, symObjAddr: 0x2298, symBinAddr: 0x1000202F0, symSize: 0x50 }
  - { offsetInCU: 0x40BF, offset: 0x55576, size: 0x8, addend: 0x0, symName: __ZNSt3__14pairIKifEC2B8ue170006IifEERKNS0_IT_T0_EE, symObjAddr: 0x233C, symBinAddr: 0x100020340, symSize: 0x30 }
  - { offsetInCU: 0x4109, offset: 0x555C0, size: 0x8, addend: 0x0, symName: __ZNSt3__16__treeINS_12__value_typeIifEENS_19__map_value_compareIiS2_NS_4lessIiEELb1EEENS_9allocatorIS2_EEE5clearEv, symObjAddr: 0x31A0, symBinAddr: 0x100020370, symSize: 0x74 }
  - { offsetInCU: 0x4131, offset: 0x555E8, size: 0x8, addend: 0x0, symName: __ZNSt3__16__treeINS_12__value_typeIifEENS_19__map_value_compareIiS2_NS_4lessIiEELb1EEENS_9allocatorIS2_EEE19__copy_assign_allocB8ue170006ERKS9_, symObjAddr: 0x323C, symBinAddr: 0x1000203E4, symSize: 0x2C }
  - { offsetInCU: 0x4166, offset: 0x5561D, size: 0x8, addend: 0x0, symName: __ZNSt3__16__treeINS_12__value_typeIifEENS_19__map_value_compareIiS2_NS_4lessIiEELb1EEENS_9allocatorIS2_EEE19__copy_assign_allocB8ue170006ERKS9_NS_17integral_constantIbLb0EEE, symObjAddr: 0x332C, symBinAddr: 0x100020410, symSize: 0x14 }
...
